ARM GAS  /tmp/ccKB7yqG.s 			page 1


   1              		.cpu cortex-m7
   2              		.arch armv7e-m
   3              		.fpu fpv5-d16
   4              		.eabi_attribute 28, 1
   5              		.eabi_attribute 20, 1
   6              		.eabi_attribute 21, 1
   7              		.eabi_attribute 23, 3
   8              		.eabi_attribute 24, 1
   9              		.eabi_attribute 25, 1
  10              		.eabi_attribute 26, 1
  11              		.eabi_attribute 30, 2
  12              		.eabi_attribute 34, 1
  13              		.eabi_attribute 18, 4
  14              		.file	"hw.cpp"
  15              		.text
  16              	.Ltext0:
  17              		.cfi_sections	.debug_frame
  18              		.file 1 "hw.cpp"
  19              		.section	.text._ZN8Hardware4InitEv,"ax",%progbits
  20              		.align	1
  21              		.p2align 2,,3
  22              		.global	_ZN8Hardware4InitEv
  23              		.syntax unified
  24              		.thumb
  25              		.thumb_func
  27              	_ZN8Hardware4InitEv:
  28              	.LVL0:
  29              	.LFB4889:
   1:hw.cpp        **** #include "hw.h"
   2:hw.cpp        **** 
   3:hw.cpp        **** // Allocate SDRAM buffers
   4:hw.cpp        **** float DSY_SDRAM_BSS Hardware::buffer_a[LOOPER_MAX_SAMPLES];
   5:hw.cpp        **** float DSY_SDRAM_BSS Hardware::buffer_b[LOOPER_MAX_SAMPLES];
   6:hw.cpp        **** 
   7:hw.cpp        **** void Hardware::Init()
   8:hw.cpp        **** {
  30              		.loc 1 8 1 view -0
  31              		.cfi_startproc
  32              		@ args = 0, pretend = 0, frame = 32
  33              		@ frame_needed = 0, uses_anonymous_args = 0
   9:hw.cpp        ****     seed.Init();
  34              		.loc 1 9 5 view .LVU1
   8:hw.cpp        ****     seed.Init();
  35              		.loc 1 8 1 is_stmt 0 view .LVU2
  36 0000 10B5     		push	{r4, lr}
  37              		.cfi_def_cfa_offset 8
  38              		.cfi_offset 4, -8
  39              		.cfi_offset 14, -4
  40 0002 0446     		mov	r4, r0
  41 0004 88B0     		sub	sp, sp, #32
  42              		.cfi_def_cfa_offset 40
  43              		.loc 1 9 14 view .LVU3
  44 0006 0021     		movs	r1, #0
  45 0008 FFF7FEFF 		bl	_ZN5daisy9DaisySeed4InitEb
  46              	.LVL1:
  10:hw.cpp        ****     seed.SetAudioBlockSize(4);
  47              		.loc 1 10 5 is_stmt 1 view .LVU4
ARM GAS  /tmp/ccKB7yqG.s 			page 2


  48              		.loc 1 10 27 is_stmt 0 view .LVU5
  49 000c 0421     		movs	r1, #4
  50 000e 2046     		mov	r0, r4
  51 0010 FFF7FEFF 		bl	_ZN5daisy9DaisySeed17SetAudioBlockSizeEj
  52              	.LVL2:
  11:hw.cpp        ****     sample_rate = seed.AudioSampleRate();
  53              		.loc 1 11 5 is_stmt 1 view .LVU6
  54              		.loc 1 11 39 is_stmt 0 view .LVU7
  55 0014 2046     		mov	r0, r4
  56 0016 FFF7FEFF 		bl	_ZN5daisy9DaisySeed15AudioSampleRateEv
  57              	.LVL3:
  12:hw.cpp        **** 
  13:hw.cpp        ****     // --- Encoders ---
  14:hw.cpp        ****     encoder1.Init(seed.GetPin(5), seed.GetPin(4), seed.GetPin(6), seed.AudioCallbackRate());
  58              		.loc 1 14 18 view .LVU8
  59 001a 0520     		movs	r0, #5
  11:hw.cpp        ****     sample_rate = seed.AudioSampleRate();
  60              		.loc 1 11 17 discriminator 1 view .LVU9
  61 001c 84ED540A 		vstr.32	s0, [r4, #336]
  62              		.loc 1 14 5 is_stmt 1 view .LVU10
  63              		.loc 1 14 18 is_stmt 0 view .LVU11
  64 0020 FFF7FEFF 		bl	_ZN5daisy9DaisySeed6GetPinEh
  65              	.LVL4:
  66 0024 0346     		mov	r3, r0	@ movhi
  67              		.loc 1 14 18 discriminator 1 view .LVU12
  68 0026 0420     		movs	r0, #4
  69              		.loc 1 14 18 view .LVU13
  70 0028 ADF80430 		strh	r3, [sp, #4]	@ movhi
  71              		.loc 1 14 18 discriminator 1 view .LVU14
  72 002c FFF7FEFF 		bl	_ZN5daisy9DaisySeed6GetPinEh
  73              	.LVL5:
  74 0030 0346     		mov	r3, r0	@ movhi
  75              		.loc 1 14 18 discriminator 2 view .LVU15
  76 0032 0620     		movs	r0, #6
  77              		.loc 1 14 18 discriminator 1 view .LVU16
  78 0034 ADF80830 		strh	r3, [sp, #8]	@ movhi
  79              		.loc 1 14 18 discriminator 2 view .LVU17
  80 0038 FFF7FEFF 		bl	_ZN5daisy9DaisySeed6GetPinEh
  81              	.LVL6:
  82 003c 0346     		mov	r3, r0	@ movhi
  83              		.loc 1 14 18 discriminator 3 view .LVU18
  84 003e 2046     		mov	r0, r4
  85              		.loc 1 14 18 discriminator 2 view .LVU19
  86 0040 ADF80C30 		strh	r3, [sp, #12]	@ movhi
  87              		.loc 1 14 18 discriminator 3 view .LVU20
  88 0044 FFF7FEFF 		bl	_ZNK5daisy9DaisySeed17AudioCallbackRateEv
  89              	.LVL7:
  90              		.loc 1 14 18 discriminator 4 view .LVU21
  91 0048 0199     		ldr	r1, [sp, #4]
  92 004a 04F17400 		add	r0, r4, #116
  93 004e DDE90223 		ldrd	r2, r3, [sp, #8]
  94 0052 FFF7FEFF 		bl	_ZN5daisy7Encoder4InitENS_3PinES1_S1_f
  95              	.LVL8:
  15:hw.cpp        ****     encoder2.Init(seed.GetPin(8), seed.GetPin(7), seed.GetPin(9), seed.AudioCallbackRate());
  96              		.loc 1 15 5 is_stmt 1 view .LVU22
  97              		.loc 1 15 18 is_stmt 0 view .LVU23
  98 0056 0820     		movs	r0, #8
ARM GAS  /tmp/ccKB7yqG.s 			page 3


  99 0058 FFF7FEFF 		bl	_ZN5daisy9DaisySeed6GetPinEh
 100              	.LVL9:
 101 005c 0346     		mov	r3, r0	@ movhi
 102              		.loc 1 15 18 discriminator 1 view .LVU24
 103 005e 0720     		movs	r0, #7
 104              		.loc 1 15 18 view .LVU25
 105 0060 ADF81030 		strh	r3, [sp, #16]	@ movhi
 106              		.loc 1 15 18 discriminator 1 view .LVU26
 107 0064 FFF7FEFF 		bl	_ZN5daisy9DaisySeed6GetPinEh
 108              	.LVL10:
 109 0068 0346     		mov	r3, r0	@ movhi
 110              		.loc 1 15 18 discriminator 2 view .LVU27
 111 006a 0920     		movs	r0, #9
 112              		.loc 1 15 18 discriminator 1 view .LVU28
 113 006c ADF81430 		strh	r3, [sp, #20]	@ movhi
 114              		.loc 1 15 18 discriminator 2 view .LVU29
 115 0070 FFF7FEFF 		bl	_ZN5daisy9DaisySeed6GetPinEh
 116              	.LVL11:
 117 0074 0346     		mov	r3, r0	@ movhi
 118              		.loc 1 15 18 discriminator 3 view .LVU30
 119 0076 2046     		mov	r0, r4
 120              		.loc 1 15 18 discriminator 2 view .LVU31
 121 0078 ADF81830 		strh	r3, [sp, #24]	@ movhi
 122              		.loc 1 15 18 discriminator 3 view .LVU32
 123 007c FFF7FEFF 		bl	_ZNK5daisy9DaisySeed17AudioCallbackRateEv
 124              	.LVL12:
 125              		.loc 1 15 18 discriminator 4 view .LVU33
 126 0080 0499     		ldr	r1, [sp, #16]
 127 0082 04F1D000 		add	r0, r4, #208
 128 0086 DDE90523 		ldrd	r2, r3, [sp, #20]
 129 008a FFF7FEFF 		bl	_ZN5daisy7Encoder4InitENS_3PinES1_S1_f
 130              	.LVL13:
  16:hw.cpp        **** 
  17:hw.cpp        ****     // --- Button 1 (Looper) ---
  18:hw.cpp        ****     button1.Init(seed.GetPin(1), seed.AudioCallbackRate());
 131              		.loc 1 18 5 is_stmt 1 view .LVU34
 132              		.loc 1 18 17 is_stmt 0 view .LVU35
 133 008e 0120     		movs	r0, #1
 134 0090 FFF7FEFF 		bl	_ZN5daisy9DaisySeed6GetPinEh
 135              	.LVL14:
 136 0094 0346     		mov	r3, r0	@ movhi
 137              		.loc 1 18 17 discriminator 1 view .LVU36
 138 0096 2046     		mov	r0, r4
 139              		.loc 1 18 17 view .LVU37
 140 0098 ADF81C30 		strh	r3, [sp, #28]	@ movhi
 141              		.loc 1 18 17 discriminator 1 view .LVU38
 142 009c FFF7FEFF 		bl	_ZNK5daisy9DaisySeed17AudioCallbackRateEv
 143              	.LVL15:
 144              		.loc 1 18 17 discriminator 2 view .LVU39
 145 00a0 0799     		ldr	r1, [sp, #28]
 146 00a2 04F59670 		add	r0, r4, #300
  19:hw.cpp        **** }
 147              		.loc 1 19 1 view .LVU40
 148 00a6 08B0     		add	sp, sp, #32
 149              		.cfi_def_cfa_offset 8
 150              		@ sp needed
 151 00a8 BDE81040 		pop	{r4, lr}
ARM GAS  /tmp/ccKB7yqG.s 			page 4


 152              		.cfi_restore 14
 153              		.cfi_restore 4
 154              		.cfi_def_cfa_offset 0
 155              	.LVL16:
  18:hw.cpp        **** }
 156              		.loc 1 18 17 discriminator 2 view .LVU41
 157 00ac FFF7FEBF 		b	_ZN5daisy6Switch4InitENS_3PinEf
 158              	.LVL17:
  18:hw.cpp        **** }
 159              		.loc 1 18 17 discriminator 2 view .LVU42
 160              		.cfi_endproc
 161              	.LFE4889:
 163              		.section	.text._ZN8Hardware15ProcessControlsEv,"ax",%progbits
 164              		.align	1
 165              		.p2align 2,,3
 166              		.global	_ZN8Hardware15ProcessControlsEv
 167              		.syntax unified
 168              		.thumb
 169              		.thumb_func
 171              	_ZN8Hardware15ProcessControlsEv:
 172              	.LVL18:
 173              	.LFB4890:
  20:hw.cpp        **** 
  21:hw.cpp        **** void Hardware::ProcessControls()
  22:hw.cpp        **** {
 174              		.loc 1 22 1 is_stmt 1 view -0
 175              		.cfi_startproc
 176              		@ args = 0, pretend = 0, frame = 0
 177              		@ frame_needed = 0, uses_anonymous_args = 0
  23:hw.cpp        ****     encoder1.Debounce();
 178              		.loc 1 23 5 view .LVU44
  22:hw.cpp        ****     encoder1.Debounce();
 179              		.loc 1 22 1 is_stmt 0 view .LVU45
 180 0000 10B5     		push	{r4, lr}
 181              		.cfi_def_cfa_offset 8
 182              		.cfi_offset 4, -8
 183              		.cfi_offset 14, -4
  22:hw.cpp        ****     encoder1.Debounce();
 184              		.loc 1 22 1 view .LVU46
 185 0002 0446     		mov	r4, r0
 186              		.loc 1 23 22 view .LVU47
 187 0004 7430     		adds	r0, r0, #116
 188              	.LVL19:
 189              		.loc 1 23 22 view .LVU48
 190 0006 FFF7FEFF 		bl	_ZN5daisy7Encoder8DebounceEv
 191              	.LVL20:
  24:hw.cpp        ****     encoder2.Debounce();
 192              		.loc 1 24 5 is_stmt 1 view .LVU49
 193              		.loc 1 24 22 is_stmt 0 view .LVU50
 194 000a 04F1D000 		add	r0, r4, #208
 195 000e FFF7FEFF 		bl	_ZN5daisy7Encoder8DebounceEv
 196              	.LVL21:
  25:hw.cpp        ****     button1.Debounce();
 197              		.loc 1 25 5 is_stmt 1 view .LVU51
 198              		.loc 1 25 21 is_stmt 0 view .LVU52
 199 0012 04F59670 		add	r0, r4, #300
  26:hw.cpp        **** }...
ARM GAS  /tmp/ccKB7yqG.s 			page 5


 200              		.loc 1 26 1 view .LVU53
 201 0016 BDE81040 		pop	{r4, lr}
 202              		.cfi_restore 14
 203              		.cfi_restore 4
 204              		.cfi_def_cfa_offset 0
 205              	.LVL22:
  25:hw.cpp        ****     button1.Debounce();
 206              		.loc 1 25 21 view .LVU54
 207 001a FFF7FEBF 		b	_ZN5daisy6Switch8DebounceEv
 208              	.LVL23:
  25:hw.cpp        ****     button1.Debounce();
 209              		.loc 1 25 21 view .LVU55
 210              		.cfi_endproc
 211              	.LFE4890:
 213              		.global	_ZN8Hardware8buffer_bE
 214 001e 00BF     		.section	.sdram_bss,"aw"
 215              		.align	2
 218              	_ZN8Hardware8buffer_bE:
 219 0000 00000000 		.space	3840000
 219      00000000 
 219      00000000 
 219      00000000 
 219      00000000 
 220              		.global	_ZN8Hardware8buffer_aE
 221              		.align	2
 224              	_ZN8Hardware8buffer_aE:
 225 3a9800 00000000 		.space	3840000
 225      00000000 
 225      00000000 
 225      00000000 
 225      00000000 
 226              		.text
 227              	.Letext0:
 228              		.file 2 "/usr/arm-none-eabi/include/machine/_default_types.h"
 229              		.file 3 "/usr/arm-none-eabi/include/sys/_stdint.h"
 230              		.file 4 "/usr/arm-none-eabi/include/stdint.h"
 231              		.file 5 "/usr/lib/gcc/arm-none-eabi/14.2.0/include/stddef.h"
 232              		.file 6 "/usr/arm-none-eabi/include/c++/14.2.0/cmath"
 233              		.file 7 "/usr/arm-none-eabi/include/c++/14.2.0/bits/std_abs.h"
 234              		.file 8 "/usr/arm-none-eabi/include/c++/14.2.0/cstdlib"
 235              		.file 9 "/usr/arm-none-eabi/include/c++/14.2.0/cstdint"
 236              		.file 10 "/usr/arm-none-eabi/include/c++/14.2.0/type_traits"
 237              		.file 11 "/usr/arm-none-eabi/include/c++/14.2.0/debug/debug.h"
 238              		.file 12 "/usr/arm-none-eabi/include/c++/14.2.0/cstdarg"
 239              		.file 13 "/usr/arm-none-eabi/include/c++/14.2.0/cstdio"
 240              		.file 14 "/usr/arm-none-eabi/include/c++/14.2.0/cstring"
 241              		.file 15 "/usr/arm-none-eabi/include/c++/14.2.0/cwchar"
 242              		.file 16 "/usr/arm-none-eabi/include/c++/14.2.0/clocale"
 243              		.file 17 "/usr/arm-none-eabi/include/c++/14.2.0/bits/stl_pair.h"
 244              		.file 18 "/usr/arm-none-eabi/include/c++/14.2.0/bits/charconv.h"
 245              		.file 19 "/usr/arm-none-eabi/include/c++/14.2.0/bits/predefined_ops.h"
 246              		.file 20 "/usr/arm-none-eabi/include/sys/_types.h"
 247              		.file 21 "/usr/arm-none-eabi/include/sys/reent.h"
 248              		.file 22 "/usr/arm-none-eabi/include/sys/lock.h"
 249              		.file 23 "/usr/arm-none-eabi/include/math.h"
 250              		.file 24 "/usr/arm-none-eabi/include/stdlib.h"
 251              		.file 25 "/usr/arm-none-eabi/include/c++/14.2.0/math.h"
ARM GAS  /tmp/ccKB7yqG.s 			page 6


 252              		.file 26 "/usr/arm-none-eabi/include/c++/14.2.0/stdlib.h"
 253              		.file 27 "/usr/arm-none-eabi/include/c++/14.2.0/arm-none-eabi/thumb/v7e-m+dp/hard/bits/c++config.h
 254              		.file 28 "libDaisy/src/daisy_core.h"
 255              		.file 29 "libDaisy/src/sys/system.h"
 256              		.file 30 "libDaisy/src/per/qspi.h"
 257              		.file 31 "libDaisy/src/per/dac.h"
 258              		.file 32 "libDaisy/src/per/gpio.h"
 259              		.file 33 "libDaisy/src/per/sai.h"
 260              		.file 34 "libDaisy/src/hid/audio.h"
 261              		.file 35 "libDaisy/src/per/adc.h"
 262              		.file 36 "libDaisy/src/hid/usb.h"
 263              		.file 37 "libDaisy/src/hid/switch.h"
 264              		.file 38 "libDaisy/src/hid/encoder.h"
 265              		.file 39 "libDaisy/src/util/wav_format.h"
 266              		.file 40 "libDaisy/src/dev/sr_595.h"
 267              		.file 41 "libDaisy/src/dev/codec_ak4556.h"
 268              		.file 42 "libDaisy/src/dev/max11300.h"
 269              		.file 43 "libDaisy/src/daisy_seed.h"
 270              		.file 44 "libDaisy/src/dev/sdram.h"
 271              		.file 45 "/usr/lib/gcc/arm-none-eabi/14.2.0/include/stdarg.h"
 272              		.file 46 "/usr/arm-none-eabi/include/stdio.h"
 273              		.file 47 "/usr/arm-none-eabi/include/string.h"
 274              		.file 48 "DaisySP/Source/Control/adenv.h"
 275              		.file 49 "DaisySP/Source/Utility/dsp.h"
 276              		.file 50 "/usr/arm-none-eabi/include/wchar.h"
 277              		.file 51 "/usr/arm-none-eabi/include/locale.h"
 278              		.file 52 "hw.h"
 279              		.file 53 "<built-in>"
ARM GAS  /tmp/ccKB7yqG.s 			page 7

