ARM GAS  /tmp/cc8O3cyV.s 			page 1


   1              		.cpu cortex-m7
   2              		.arch armv7e-m
   3              		.fpu fpv5-d16
   4              		.eabi_attribute 28, 1
   5              		.eabi_attribute 20, 1
   6              		.eabi_attribute 21, 1
   7              		.eabi_attribute 23, 3
   8              		.eabi_attribute 24, 1
   9              		.eabi_attribute 25, 1
  10              		.eabi_attribute 26, 1
  11              		.eabi_attribute 30, 2
  12              		.eabi_attribute 34, 1
  13              		.eabi_attribute 18, 4
  14              		.file	"processing.cpp"
  15              		.text
  16              	.Ltext0:
  17              		.cfi_sections	.debug_frame
  18              		.file 1 "processing.cpp"
  19              		.section	.rodata._ZN10Processing7SetPageEi.str1.4,"aMS",%progbits,1
  20              		.align	2
  21              	.LC0:
  22 0000 4D495800 		.ascii	"MIX\000"
  23              		.align	2
  24              	.LC1:
  25 0004 54494D45 		.ascii	"TIME\000"
  25      00
  26              		.section	.text._ZN10Processing7SetPageEi,"ax",%progbits
  27              		.align	1
  28              		.p2align 2,,3
  29              		.global	_ZN10Processing7SetPageEi
  30              		.syntax unified
  31              		.thumb
  32              		.thumb_func
  34              	_ZN10Processing7SetPageEi:
  35              	.LVL0:
  36              	.LFB4899:
   1:processing.cpp **** #include "processing.h"
   2:processing.cpp **** #include <string.h> 
   3:processing.cpp **** #include <math.h>   
   4:processing.cpp **** #include <stdlib.h> 
   5:processing.cpp **** #include <cstdio> 
   6:processing.cpp **** 
   7:processing.cpp **** using namespace daisy;
   8:processing.cpp **** using namespace daisysp;
   9:processing.cpp **** 
  10:processing.cpp **** // --- Menu Definitions ---
  11:processing.cpp **** 
  12:processing.cpp **** // Page 1: Mix
  13:processing.cpp **** const MenuItem kItemsMix[] = {
  14:processing.cpp ****     {"Pre Gain", TYPE_PARAM, PARAM_PRE_GAIN},
  15:processing.cpp ****     {"Post Gain",TYPE_PARAM, PARAM_POST_GAIN},
  16:processing.cpp ****     {"Mix",      TYPE_PARAM, PARAM_MIX},
  17:processing.cpp ****     {"Fbk",      TYPE_PARAM, PARAM_FEEDBACK}
  18:processing.cpp **** };
  19:processing.cpp **** 
  20:processing.cpp **** // Page 2: Granular
  21:processing.cpp **** const MenuItem kItemsGrain[] = {
ARM GAS  /tmp/cc8O3cyV.s 			page 2


  22:processing.cpp ****     {"Pitch",    TYPE_PARAM, PARAM_PITCH},
  23:processing.cpp ****     {"Size",     TYPE_PARAM, PARAM_GRAIN_SIZE},
  24:processing.cpp ****     {"Density",  TYPE_PARAM, PARAM_GRAINS},
  25:processing.cpp ****     {"Spray",    TYPE_PARAM, PARAM_SPRAY},
  26:processing.cpp ****     {"Stereo",   TYPE_PARAM, PARAM_STEREO}
  27:processing.cpp **** };
  28:processing.cpp **** 
  29:processing.cpp **** // Page 3: Time
  30:processing.cpp **** const MenuItem kItemsTime[] = {
  31:processing.cpp ****     {"BPM",      TYPE_PARAM, PARAM_BPM},
  32:processing.cpp ****     {"Div",      TYPE_PARAM, PARAM_DIVISION}
  33:processing.cpp **** };
  34:processing.cpp **** 
  35:processing.cpp **** // Advanced Menu (Secondary Page)
  36:processing.cpp **** const MenuItem kItemsAdvanced[] = {
  37:processing.cpp ****     {"Map Amt",  TYPE_PARAM, PARAM_MAP_AMT}
  38:processing.cpp **** };
  39:processing.cpp **** 
  40:processing.cpp **** // Page Registry
  41:processing.cpp **** const MenuPage kPages[] = {
  42:processing.cpp ****     {"MIX",   kItemsMix,   sizeof(kItemsMix)/sizeof(MenuItem)},
  43:processing.cpp ****     {"GRAIN", kItemsGrain, sizeof(kItemsGrain)/sizeof(MenuItem)},
  44:processing.cpp ****     {"TIME",  kItemsTime,  sizeof(kItemsTime)/sizeof(MenuItem)}
  45:processing.cpp **** };
  46:processing.cpp **** const int kNumPages = sizeof(kPages) / sizeof(MenuPage);
  47:processing.cpp **** 
  48:processing.cpp **** float DSY_SDRAM_BSS Processing::buffer[MAX_BUFFER_SAMPLES];
  49:processing.cpp **** Processing::Grain Processing::grains_l[MAX_GRAINS];
  50:processing.cpp **** Processing::Grain Processing::grains_r[MAX_GRAINS];
  51:processing.cpp **** 
  52:processing.cpp **** void Processing::Init(Hardware &hw)
  53:processing.cpp **** {
  54:processing.cpp ****     memset(buffer, 0, MAX_BUFFER_SAMPLES * sizeof(float));
  55:processing.cpp ****     sample_rate_ = hw.sample_rate;
  56:processing.cpp ****     
  57:processing.cpp ****     // Defaults
  58:processing.cpp ****     params[PARAM_PRE_GAIN] = 0.5f; params[PARAM_FEEDBACK] = 0.5f; params[PARAM_MIX] = 0.5f;
  59:processing.cpp ****     params[PARAM_POST_GAIN] = 0.5f; params[PARAM_BPM] = 120.0f; params[PARAM_DIVISION] = 1.0f; 
  60:processing.cpp ****     params[PARAM_PITCH] = 1.0f; params[PARAM_GRAIN_SIZE] = 0.1f; params[PARAM_GRAINS] = 10.0f; 
  61:processing.cpp ****     params[PARAM_SPRAY] = 0.0f; params[PARAM_STEREO] = 0.0f;
  62:processing.cpp ****     
  63:processing.cpp ****     for(int i=0; i<PARAM_COUNT; i++) {
  64:processing.cpp ****         knob_map_amounts[i] = 0.0f; 
  65:processing.cpp ****         effective_params[i] = params[i]; 
  66:processing.cpp ****     }
  67:processing.cpp ****     
  68:processing.cpp ****     division_idx = 0; params[PARAM_DIVISION] = (float)division_vals[division_idx];
  69:processing.cpp ****     
  70:processing.cpp ****     // UI Init
  71:processing.cpp ****     current_page_idx = 0;
  72:processing.cpp ****     advanced_mode = false;
  73:processing.cpp ****     SetPage(0);
  74:processing.cpp ****     
  75:processing.cpp ****     // Control Init
  76:processing.cpp ****     enc1_holding = false;
  77:processing.cpp ****     enc1_hold_time = 0.0f;
  78:processing.cpp **** 
ARM GAS  /tmp/cc8O3cyV.s 			page 3


  79:processing.cpp ****     UpdateBufferLen();
  80:processing.cpp ****     UpdateGrainParams();
  81:processing.cpp **** }
  82:processing.cpp **** 
  83:processing.cpp **** void Processing::SetPage(int page_idx) {
  37              		.loc 1 83 40 view -0
  38              		.cfi_startproc
  39              		@ args = 0, pretend = 0, frame = 0
  40              		@ frame_needed = 0, uses_anonymous_args = 0
  41              		@ link register save eliminated.
  84:processing.cpp ****     if (page_idx < 0) page_idx = kNumPages - 1;
  42              		.loc 1 84 5 view .LVU1
  43 0000 0029     		cmp	r1, #0
  83:processing.cpp ****     if (page_idx < 0) page_idx = kNumPages - 1;
  44              		.loc 1 83 40 is_stmt 0 view .LVU2
  45 0002 30B4     		push	{r4, r5}
  46              		.cfi_def_cfa_offset 8
  47              		.cfi_offset 4, -8
  48              		.cfi_offset 5, -4
  49              		.loc 1 84 5 view .LVU3
  50 0004 1ADB     		blt	.L3
  85:processing.cpp ****     if (page_idx >= kNumPages) page_idx = 0;
  51              		.loc 1 85 5 is_stmt 1 view .LVU4
  52 0006 0229     		cmp	r1, #2
  53 0008 13DC     		bgt	.L4
  86:processing.cpp ****     
  87:processing.cpp ****     current_page_idx = page_idx;
  88:processing.cpp ****     current_page_name = kPages[current_page_idx].name;
  54              		.loc 1 88 50 is_stmt 0 view .LVU5
  55 000a 0F4A     		ldr	r2, .L7
  56 000c 01EB4104 		add	r4, r1, r1, lsl #1
  57 0010 02EB8403 		add	r3, r2, r4, lsl #2
  58 0014 52F82450 		ldr	r5, [r2, r4, lsl #2]
  89:processing.cpp ****     current_menu_items = kPages[current_page_idx].items;
  90:processing.cpp ****     current_menu_size = kPages[current_page_idx].num_items;
  59              		.loc 1 90 50 view .LVU6
  60 0018 D3E90142 		ldrd	r4, r2, [r3, #4]
  61              	.LVL1:
  62              	.L2:
  87:processing.cpp ****     current_page_name = kPages[current_page_idx].name;
  63              		.loc 1 87 5 is_stmt 1 view .LVU7
  91:processing.cpp ****     selected_item_idx = 0;
  64              		.loc 1 91 23 is_stmt 0 view .LVU8
  65 001c 0023     		movs	r3, #0
  87:processing.cpp ****     current_page_name = kPages[current_page_idx].name;
  66              		.loc 1 87 22 view .LVU9
  67 001e C0F8C810 		str	r1, [r0, #200]
  88:processing.cpp ****     current_menu_items = kPages[current_page_idx].items;
  68              		.loc 1 88 5 is_stmt 1 view .LVU10
  89:processing.cpp ****     current_menu_size = kPages[current_page_idx].num_items;
  69              		.loc 1 89 24 is_stmt 0 view .LVU11
  70 0022 C0E93454 		strd	r5, r4, [r0, #208]
  90:processing.cpp ****     selected_item_idx = 0;
  71              		.loc 1 90 5 is_stmt 1 view .LVU12
  72              		.loc 1 91 23 is_stmt 0 view .LVU13
  73 0026 C0E93623 		strd	r2, r3, [r0, #216]
  92:processing.cpp ****     ui_state = STATE_MENU_NAV;
ARM GAS  /tmp/cc8O3cyV.s 			page 4


  74              		.loc 1 92 5 is_stmt 1 view .LVU14
  93:processing.cpp **** }
  75              		.loc 1 93 1 is_stmt 0 view .LVU15
  76 002a 30BC     		pop	{r4, r5}
  77              		.cfi_remember_state
  78              		.cfi_restore 5
  79              		.cfi_restore 4
  80              		.cfi_def_cfa_offset 0
  92:processing.cpp ****     ui_state = STATE_MENU_NAV;
  81              		.loc 1 92 14 view .LVU16
  82 002c 80F8C430 		strb	r3, [r0, #196]
  83              		.loc 1 93 1 view .LVU17
  84 0030 7047     		bx	lr
  85              	.L4:
  86              		.cfi_restore_state
  87              		.loc 1 93 1 view .LVU18
  88 0032 0422     		movs	r2, #4
  89 0034 054C     		ldr	r4, .L7+4
  90 0036 064D     		ldr	r5, .L7+8
  85:processing.cpp ****     
  91              		.loc 1 85 41 discriminator 1 view .LVU19
  92 0038 0021     		movs	r1, #0
  93              	.LVL2:
  85:processing.cpp ****     
  94              		.loc 1 85 41 discriminator 1 view .LVU20
  95 003a EFE7     		b	.L2
  96              	.LVL3:
  97              	.L3:
  85:processing.cpp ****     
  98              		.loc 1 85 41 discriminator 1 view .LVU21
  99 003c 0222     		movs	r2, #2
 100 003e 054C     		ldr	r4, .L7+12
 101 0040 054D     		ldr	r5, .L7+16
  84:processing.cpp ****     if (page_idx >= kNumPages) page_idx = 0;
 102              		.loc 1 84 32 discriminator 1 view .LVU22
 103 0042 1146     		mov	r1, r2
 104              	.LVL4:
  84:processing.cpp ****     if (page_idx >= kNumPages) page_idx = 0;
 105              		.loc 1 84 32 discriminator 1 view .LVU23
 106 0044 EAE7     		b	.L2
 107              	.L8:
 108 0046 00BF     		.align	2
 109              	.L7:
 110 0048 00000000 		.word	_ZL6kPages
 111 004c 00000000 		.word	_ZL9kItemsMix
 112 0050 00000000 		.word	.LC0
 113 0054 00000000 		.word	_ZL10kItemsTime
 114 0058 04000000 		.word	.LC1
 115              		.cfi_endproc
 116              	.LFE4899:
 118              		.section	.rodata._ZN10Processing15SetAdvancedModeEb.str1.4,"aMS",%progbits,1
 119              		.align	2
 120              	.LC2:
 121 0000 41445641 		.ascii	"ADVANCED\000"
 121      4E434544 
 121      00
 122              		.section	.text._ZN10Processing15SetAdvancedModeEb,"ax",%progbits
ARM GAS  /tmp/cc8O3cyV.s 			page 5


 123              		.align	1
 124              		.p2align 2,,3
 125              		.global	_ZN10Processing15SetAdvancedModeEb
 126              		.syntax unified
 127              		.thumb
 128              		.thumb_func
 130              	_ZN10Processing15SetAdvancedModeEb:
 131              	.LVL5:
 132              	.LFB4900:
  94:processing.cpp **** 
  95:processing.cpp **** void Processing::SetAdvancedMode(bool enabled) {
 133              		.loc 1 95 48 is_stmt 1 view -0
 134              		.cfi_startproc
 135              		@ args = 0, pretend = 0, frame = 0
 136              		@ frame_needed = 0, uses_anonymous_args = 0
 137              		@ link register save eliminated.
  96:processing.cpp ****     advanced_mode = enabled;
 138              		.loc 1 96 5 view .LVU25
  97:processing.cpp ****     ui_state = STATE_MENU_NAV;
 139              		.loc 1 97 14 is_stmt 0 view .LVU26
 140 0000 0023     		movs	r3, #0
  95:processing.cpp ****     advanced_mode = enabled;
 141              		.loc 1 95 48 view .LVU27
 142 0002 30B4     		push	{r4, r5}
 143              		.cfi_def_cfa_offset 8
 144              		.cfi_offset 4, -8
 145              		.cfi_offset 5, -4
 146              		.loc 1 97 14 view .LVU28
 147 0004 80F8C430 		strb	r3, [r0, #196]
  96:processing.cpp ****     advanced_mode = enabled;
 148              		.loc 1 96 19 view .LVU29
 149 0008 80F8CC10 		strb	r1, [r0, #204]
 150              		.loc 1 97 5 is_stmt 1 view .LVU30
  98:processing.cpp ****     selected_item_idx = 0;
 151              		.loc 1 98 5 view .LVU31
 152              		.loc 1 98 23 is_stmt 0 view .LVU32
 153 000c C0F8DC30 		str	r3, [r0, #220]
  99:processing.cpp ****     
 100:processing.cpp ****     if (advanced_mode) {
 154              		.loc 1 100 5 is_stmt 1 view .LVU33
 155 0010 41B1     		cbz	r1, .L16
 156 0012 154C     		ldr	r4, .L17
 157 0014 0123     		movs	r3, #1
 158 0016 154A     		ldr	r2, .L17+4
 101:processing.cpp ****         current_page_name = "ADVANCED";
 102:processing.cpp ****         current_menu_items = kItemsAdvanced;
 103:processing.cpp ****         current_menu_size = sizeof(kItemsAdvanced)/sizeof(MenuItem);
 159              		.loc 1 103 27 is_stmt 0 view .LVU34
 160 0018 C0F8D830 		str	r3, [r0, #216]
 102:processing.cpp ****         current_menu_size = sizeof(kItemsAdvanced)/sizeof(MenuItem);
 161              		.loc 1 102 28 view .LVU35
 162 001c C0E93442 		strd	r4, r2, [r0, #208]
 104:processing.cpp ****     } else {
 105:processing.cpp ****         // Return to last active page
 106:processing.cpp ****         SetPage(current_page_idx);
 107:processing.cpp ****     }
 108:processing.cpp **** }
ARM GAS  /tmp/cc8O3cyV.s 			page 6


 163              		.loc 1 108 1 view .LVU36
 164 0020 30BC     		pop	{r4, r5}
 165              		.cfi_remember_state
 166              		.cfi_restore 5
 167              		.cfi_restore 4
 168              		.cfi_def_cfa_offset 0
 169 0022 7047     		bx	lr
 170              	.L16:
 171              		.cfi_restore_state
 172              	.LVL6:
 173              	.LBB82:
 174              	.LBI82:
  95:processing.cpp ****     advanced_mode = enabled;
 175              		.loc 1 95 6 is_stmt 1 view .LVU37
 176              	.LBB83:
 106:processing.cpp ****     }
 177              		.loc 1 106 9 view .LVU38
 106:processing.cpp ****     }
 178              		.loc 1 106 16 is_stmt 0 view .LVU39
 179 0024 D0F8C850 		ldr	r5, [r0, #200]
 180              	.LVL7:
 181              	.LBB84:
 182              	.LBI84:
  83:processing.cpp ****     if (page_idx < 0) page_idx = kNumPages - 1;
 183              		.loc 1 83 6 is_stmt 1 view .LVU40
 184              	.LBB85:
  84:processing.cpp ****     if (page_idx >= kNumPages) page_idx = 0;
 185              		.loc 1 84 5 view .LVU41
 186 0028 9D42     		cmp	r5, r3
 187 002a 12DB     		blt	.L13
  85:processing.cpp ****     
 188              		.loc 1 85 5 view .LVU42
 189 002c 022D     		cmp	r5, #2
 190 002e 15DC     		bgt	.L14
  88:processing.cpp ****     current_menu_items = kPages[current_page_idx].items;
 191              		.loc 1 88 50 is_stmt 0 view .LVU43
 192 0030 0F4A     		ldr	r2, .L17+8
 193 0032 05EB4501 		add	r1, r5, r5, lsl #1
 194              	.LVL8:
  88:processing.cpp ****     current_menu_items = kPages[current_page_idx].items;
 195              		.loc 1 88 50 view .LVU44
 196 0036 02EB8103 		add	r3, r2, r1, lsl #2
 197 003a 52F82140 		ldr	r4, [r2, r1, lsl #2]
  90:processing.cpp ****     selected_item_idx = 0;
 198              		.loc 1 90 50 view .LVU45
 199 003e D3E90123 		ldrd	r2, r3, [r3, #4]
 200              	.LVL9:
 201              	.L11:
  87:processing.cpp ****     current_page_name = kPages[current_page_idx].name;
 202              		.loc 1 87 5 is_stmt 1 view .LVU46
  87:processing.cpp ****     current_page_name = kPages[current_page_idx].name;
 203              		.loc 1 87 22 is_stmt 0 view .LVU47
 204 0042 C0F8C850 		str	r5, [r0, #200]
  88:processing.cpp ****     current_menu_items = kPages[current_page_idx].items;
 205              		.loc 1 88 5 is_stmt 1 view .LVU48
  89:processing.cpp ****     current_menu_size = kPages[current_page_idx].num_items;
 206              		.loc 1 89 5 view .LVU49
ARM GAS  /tmp/cc8O3cyV.s 			page 7


  90:processing.cpp ****     selected_item_idx = 0;
 207              		.loc 1 90 5 view .LVU50
  91:processing.cpp ****     ui_state = STATE_MENU_NAV;
 208              		.loc 1 91 5 view .LVU51
  92:processing.cpp **** }
 209              		.loc 1 92 5 view .LVU52
 210              	.LVL10:
  92:processing.cpp **** }
 211              		.loc 1 92 5 is_stmt 0 view .LVU53
 212              	.LBE85:
 213              	.LBE84:
 214              	.LBE83:
 215              	.LBE82:
 103:processing.cpp ****     } else {
 216              		.loc 1 103 27 view .LVU54
 217 0046 C0F8D830 		str	r3, [r0, #216]
 102:processing.cpp ****         current_menu_size = sizeof(kItemsAdvanced)/sizeof(MenuItem);
 218              		.loc 1 102 28 view .LVU55
 219 004a C0E93442 		strd	r4, r2, [r0, #208]
 220              		.loc 1 108 1 view .LVU56
 221 004e 30BC     		pop	{r4, r5}
 222              		.cfi_remember_state
 223              		.cfi_restore 5
 224              		.cfi_restore 4
 225              		.cfi_def_cfa_offset 0
 226 0050 7047     		bx	lr
 227              	.LVL11:
 228              	.L13:
 229              		.cfi_restore_state
 230              	.LBB89:
 231              	.LBB88:
 232              	.LBB87:
 233              	.LBB86:
 234              		.loc 1 108 1 view .LVU57
 235 0052 0223     		movs	r3, #2
 236 0054 074A     		ldr	r2, .L17+12
 237 0056 084C     		ldr	r4, .L17+16
  84:processing.cpp ****     if (page_idx >= kNumPages) page_idx = 0;
 238              		.loc 1 84 32 discriminator 1 view .LVU58
 239 0058 1D46     		mov	r5, r3
 240              	.LVL12:
  84:processing.cpp ****     if (page_idx >= kNumPages) page_idx = 0;
 241              		.loc 1 84 32 discriminator 1 view .LVU59
 242 005a F2E7     		b	.L11
 243              	.LVL13:
 244              	.L14:
  84:processing.cpp ****     if (page_idx >= kNumPages) page_idx = 0;
 245              		.loc 1 84 32 discriminator 1 view .LVU60
 246 005c 0423     		movs	r3, #4
 247 005e 074A     		ldr	r2, .L17+20
 248 0060 074C     		ldr	r4, .L17+24
  85:processing.cpp ****     
 249              		.loc 1 85 41 discriminator 1 view .LVU61
 250 0062 0D46     		mov	r5, r1
 251              	.LVL14:
  85:processing.cpp ****     
 252              		.loc 1 85 41 discriminator 1 view .LVU62
ARM GAS  /tmp/cc8O3cyV.s 			page 8


 253 0064 EDE7     		b	.L11
 254              	.L18:
 255 0066 00BF     		.align	2
 256              	.L17:
 257 0068 00000000 		.word	.LC2
 258 006c 00000000 		.word	_ZL14kItemsAdvanced
 259 0070 00000000 		.word	_ZL6kPages
 260 0074 00000000 		.word	_ZL10kItemsTime
 261 0078 04000000 		.word	.LC1
 262 007c 00000000 		.word	_ZL9kItemsMix
 263 0080 00000000 		.word	.LC0
 264              	.LBE86:
 265              	.LBE87:
 266              	.LBE88:
 267              	.LBE89:
 268              		.cfi_endproc
 269              	.LFE4900:
 271              		.section	.text._ZN10Processing15UpdateBufferLenEv,"ax",%progbits
 272              		.align	1
 273              		.p2align 2,,3
 274              		.global	_ZN10Processing15UpdateBufferLenEv
 275              		.syntax unified
 276              		.thumb
 277              		.thumb_func
 279              	_ZN10Processing15UpdateBufferLenEv:
 280              	.LVL15:
 281              	.LFB4902:
 109:processing.cpp **** 
 110:processing.cpp **** void Processing::Controls(Hardware &hw)
 111:processing.cpp **** {
 112:processing.cpp ****     // --- Encoder 1: Interaction Logic ---
 113:processing.cpp **** 
 114:processing.cpp ****     // 1. Hold Time Accumulation
 115:processing.cpp ****     bool enc1_pressed = hw.encoder1.Pressed();
 116:processing.cpp ****     if (enc1_pressed) {
 117:processing.cpp ****         // Increment based on actual Callback Rate (approx 12kHz for block size 4)
 118:processing.cpp ****         enc1_hold_time += 1.0f / hw.seed.AudioCallbackRate();
 119:processing.cpp **** 
 120:processing.cpp ****         // Trigger HOLD ACTION immediately when threshold is crossed
 121:processing.cpp ****         if (enc1_hold_time > 0.6f && !enc1_holding) {
 122:processing.cpp ****             SetAdvancedMode(!advanced_mode);
 123:processing.cpp ****             enc1_holding = true; // Mark as handled so we don't trigger again or trigger click on r
 124:processing.cpp ****         }
 125:processing.cpp ****     }
 126:processing.cpp **** 
 127:processing.cpp ****     // 2. Release Logic (Click)
 128:processing.cpp ****     if (hw.encoder1.FallingEdge()) {
 129:processing.cpp ****         // Only trigger click if the hold action was NOT triggered
 130:processing.cpp ****         if (!enc1_holding) {
 131:processing.cpp ****             // --- SHORT CLICK: Toggle Edit Mode ---
 132:processing.cpp ****             if (ui_state == STATE_MENU_NAV) {
 133:processing.cpp ****                  const MenuItem &item = current_menu_items[selected_item_idx];
 134:processing.cpp ****                  if (item.type == TYPE_PARAM) {
 135:processing.cpp ****                      edit_param_target = item.param_id;
 136:processing.cpp ****                      ui_state = STATE_PARAM_EDIT;
 137:processing.cpp ****                  }
 138:processing.cpp ****             } else if (ui_state == STATE_PARAM_EDIT) {
ARM GAS  /tmp/cc8O3cyV.s 			page 9


 139:processing.cpp ****                 ui_state = STATE_MENU_NAV;
 140:processing.cpp ****             }
 141:processing.cpp ****         }
 142:processing.cpp ****     }
 143:processing.cpp **** 
 144:processing.cpp ****     // 3. Reset Hold State on Release
 145:processing.cpp ****     if (!enc1_pressed) {
 146:processing.cpp ****         enc1_hold_time = 0.0f;
 147:processing.cpp ****         enc1_holding = false;
 148:processing.cpp ****     }
 149:processing.cpp **** 
 150:processing.cpp **** 
 151:processing.cpp ****     // --- Encoder 2: Page Navigation ---
 152:processing.cpp ****     // Only works if NOT in Advanced Mode and NOT editing a parameter
 153:processing.cpp ****     if (!advanced_mode && ui_state == STATE_MENU_NAV) {
 154:processing.cpp ****         int page_inc = hw.encoder2.Increment();
 155:processing.cpp ****         if (page_inc != 0) {
 156:processing.cpp ****             SetPage(current_page_idx + page_inc);
 157:processing.cpp ****         }
 158:processing.cpp ****     }
 159:processing.cpp **** 
 160:processing.cpp **** 
 161:processing.cpp ****     // --- Encoder 1: Value / Selection ---
 162:processing.cpp ****     int enc1_inc = hw.encoder1.Increment();
 163:processing.cpp ****     
 164:processing.cpp ****     if (ui_state == STATE_MENU_NAV)
 165:processing.cpp ****     {
 166:processing.cpp ****         // Navigate List
 167:processing.cpp ****         if (enc1_inc != 0) {
 168:processing.cpp ****             selected_item_idx += enc1_inc;
 169:processing.cpp ****             if (selected_item_idx < 0) selected_item_idx = 0;
 170:processing.cpp ****             if (selected_item_idx >= current_menu_size) selected_item_idx = current_menu_size - 1;
 171:processing.cpp ****         }
 172:processing.cpp ****     }
 173:processing.cpp ****     else if (ui_state == STATE_PARAM_EDIT)
 174:processing.cpp ****     {
 175:processing.cpp ****         // Change Value
 176:processing.cpp ****         if (enc1_inc != 0) {
 177:processing.cpp ****             float scale = 0.01f;
 178:processing.cpp ****             if (hw.encoder1.Pressed()) scale = 0.05f; // Faster if pressed while turning
 179:processing.cpp ****             
 180:processing.cpp ****             params[edit_param_target] += (float)enc1_inc * scale;
 181:processing.cpp ****             params[edit_param_target] = fclamp(params[edit_param_target], 0.0f, 1.0f);
 182:processing.cpp ****             effective_params[edit_param_target] = params[edit_param_target];
 183:processing.cpp ****         }
 184:processing.cpp ****     }
 185:processing.cpp **** 
 186:processing.cpp ****     UpdateBufferLen();
 187:processing.cpp ****     UpdateGrainParams();
 188:processing.cpp **** }
 189:processing.cpp **** 
 190:processing.cpp **** void Processing::UpdateBufferLen() {
 282              		.loc 1 190 36 is_stmt 1 view -0
 283              		.cfi_startproc
 284              		@ args = 0, pretend = 0, frame = 0
 285              		@ frame_needed = 0, uses_anonymous_args = 0
 286              		@ link register save eliminated.
ARM GAS  /tmp/cc8O3cyV.s 			page 10


 191:processing.cpp ****     float bpm = effective_params[PARAM_BPM]; float division = params[PARAM_DIVISION]; 
 287              		.loc 1 191 5 view .LVU64
 192:processing.cpp ****     float loop_len_sec = (1.0f / (bpm / 60.0f)) * (4.0f / division);
 288              		.loc 1 192 39 is_stmt 0 view .LVU65
 289 0000 DFED146A 		vldr.32	s13, .L25
 290              		.loc 1 192 32 view .LVU66
 291 0004 F7EE005A 		vmov.f32	s11, #1.0e+0
 292              		.loc 1 192 39 view .LVU67
 293 0008 D0ED224A 		vldr.32	s9, [r0, #136]
 294              		.loc 1 192 57 view .LVU68
 295 000c B1EE005A 		vmov.f32	s10, #4.0e+0
 296              	.LVL16:
 191:processing.cpp ****     float bpm = effective_params[PARAM_BPM]; float division = params[PARAM_DIVISION]; 
 297              		.loc 1 191 46 is_stmt 1 view .LVU69
 298              		.loc 1 192 5 view .LVU70
 193:processing.cpp ****     buffer_len_samples = (uint32_t)(loop_len_sec * sample_rate_);
 299              		.loc 1 193 5 view .LVU71
 192:processing.cpp ****     float loop_len_sec = (1.0f / (bpm / 60.0f)) * (4.0f / division);
 300              		.loc 1 192 57 is_stmt 0 view .LVU72
 301 0010 D0ED0B7A 		vldr.32	s15, [r0, #44]
 192:processing.cpp ****     float loop_len_sec = (1.0f / (bpm / 60.0f)) * (4.0f / division);
 302              		.loc 1 192 39 view .LVU73
 303 0014 84EEA66A 		vdiv.f32	s12, s9, s13
 304              		.loc 1 193 50 view .LVU74
 305 0018 90ED2F7A 		vldr.32	s14, [r0, #188]
 194:processing.cpp ****     if(buffer_len_samples > MAX_BUFFER_SAMPLES) { buffer_len_samples = MAX_BUFFER_SAMPLES; }
 306              		.loc 1 194 5 view .LVU75
 307 001c 0E4A     		ldr	r2, .L25+4
 192:processing.cpp ****     float loop_len_sec = (1.0f / (bpm / 60.0f)) * (4.0f / division);
 308              		.loc 1 192 57 view .LVU76
 309 001e C5EE276A 		vdiv.f32	s13, s10, s15
 192:processing.cpp ****     float loop_len_sec = (1.0f / (bpm / 60.0f)) * (4.0f / division);
 310              		.loc 1 192 32 view .LVU77
 311 0022 C5EE867A 		vdiv.f32	s15, s11, s12
 192:processing.cpp ****     float loop_len_sec = (1.0f / (bpm / 60.0f)) * (4.0f / division);
 312              		.loc 1 192 11 view .LVU78
 313 0026 67EEA67A 		vmul.f32	s15, s15, s13
 193:processing.cpp ****     buffer_len_samples = (uint32_t)(loop_len_sec * sample_rate_);
 314              		.loc 1 193 50 view .LVU79
 315 002a 67EE877A 		vmul.f32	s15, s15, s14
 193:processing.cpp ****     buffer_len_samples = (uint32_t)(loop_len_sec * sample_rate_);
 316              		.loc 1 193 26 view .LVU80
 317 002e FCEEE77A 		vcvt.u32.f32	s15, s15
 318 0032 17EE903A 		vmov	r3, s15	@ int
 319              		.loc 1 194 5 is_stmt 1 view .LVU81
 320 0036 9342     		cmp	r3, r2
 321 0038 09D8     		bhi	.L23
 195:processing.cpp ****     if(buffer_len_samples < 4) { buffer_len_samples = 4; }
 322              		.loc 1 195 5 view .LVU82
 323              		.loc 1 195 53 is_stmt 0 discriminator 1 view .LVU83
 324 003a 032B     		cmp	r3, #3
 325 003c 98BF     		it	ls
 326 003e 0423     		movls	r3, #4
 327              	.L21:
 196:processing.cpp ****     if(write_pos >= buffer_len_samples) { write_pos = 0; }
 328              		.loc 1 196 5 view .LVU84
 329 0040 0268     		ldr	r2, [r0]
ARM GAS  /tmp/cc8O3cyV.s 			page 11


 330 0042 4360     		str	r3, [r0, #4]
 331              	.LVL17:
 332              		.loc 1 196 5 is_stmt 1 view .LVU85
 333 0044 9A42     		cmp	r2, r3
 334 0046 01D3     		bcc	.L19
 335              		.loc 1 196 43 discriminator 1 view .LVU86
 336              		.loc 1 196 53 is_stmt 0 discriminator 1 view .LVU87
 337 0048 0023     		movs	r3, #0
 338 004a 0360     		str	r3, [r0]
 339              	.L19:
 197:processing.cpp **** }
 340              		.loc 1 197 1 view .LVU88
 341 004c 7047     		bx	lr
 342              	.LVL18:
 343              	.L23:
 194:processing.cpp ****     if(buffer_len_samples < 4) { buffer_len_samples = 4; }
 344              		.loc 1 194 70 discriminator 1 view .LVU89
 345 004e 1346     		mov	r3, r2
 346 0050 F6E7     		b	.L21
 347              	.L26:
 348 0052 00BF     		.align	2
 349              	.L25:
 350 0054 00007042 		.word	1114636288
 351 0058 00770100 		.word	96000
 352              		.cfi_endproc
 353              	.LFE4902:
 355              		.section	.text._ZN10Processing17UpdateGrainParamsEv,"ax",%progbits
 356              		.align	1
 357              		.p2align 2,,3
 358              		.global	_ZN10Processing17UpdateGrainParamsEv
 359              		.syntax unified
 360              		.thumb
 361              		.thumb_func
 363              	_ZN10Processing17UpdateGrainParamsEv:
 364              	.LVL19:
 365              	.LFB4903:
 198:processing.cpp **** 
 199:processing.cpp **** void Processing::UpdateGrainParams() {
 366              		.loc 1 199 38 is_stmt 1 view -0
 367              		.cfi_startproc
 368              		@ args = 0, pretend = 0, frame = 0
 369              		@ frame_needed = 0, uses_anonymous_args = 0
 370              		@ link register save eliminated.
 200:processing.cpp ****     float density_hz = effective_params[PARAM_GRAINS]; float stereo_amt = effective_params[PARAM_ST
 371              		.loc 1 200 5 view .LVU91
 372              	.LBB90:
 373              	.LBB91:
 374              		.file 2 "processing.h"
   1:processing.h  **** #pragma once
   2:processing.h  **** #include "daisysp.h"
   3:processing.h  **** #include "hw.h"
   4:processing.h  **** #include "config.h"
   5:processing.h  **** 
   6:processing.h  **** using namespace daisy;
   7:processing.h  **** using namespace daisysp;
   8:processing.h  **** 
   9:processing.h  **** // --- Parameter Enum ---
ARM GAS  /tmp/cc8O3cyV.s 			page 12


  10:processing.h  **** enum Param
  11:processing.h  **** {
  12:processing.h  ****     PARAM_PRE_GAIN,
  13:processing.h  ****     PARAM_FEEDBACK,
  14:processing.h  ****     PARAM_MIX,
  15:processing.h  ****     PARAM_POST_GAIN,
  16:processing.h  ****     PARAM_BPM,
  17:processing.h  ****     PARAM_DIVISION,
  18:processing.h  ****     PARAM_PITCH,
  19:processing.h  ****     PARAM_GRAIN_SIZE,
  20:processing.h  ****     PARAM_GRAINS, 
  21:processing.h  ****     PARAM_SPRAY,  
  22:processing.h  ****     PARAM_STEREO,
  23:processing.h  ****     PARAM_MAP_AMT, 
  24:processing.h  ****     PARAM_COUNT
  25:processing.h  **** };
  26:processing.h  **** 
  27:processing.h  **** enum MenuItemType
  28:processing.h  **** {
  29:processing.h  ****     TYPE_PARAM,           
  30:processing.h  ****     TYPE_INFO,
  31:processing.h  ****     TYPE_BACK             
  32:processing.h  **** };
  33:processing.h  **** 
  34:processing.h  **** struct MenuItem
  35:processing.h  **** {
  36:processing.h  ****     const char* name;
  37:processing.h  ****     MenuItemType type;
  38:processing.h  ****     int param_id;             
  39:processing.h  **** };
  40:processing.h  **** 
  41:processing.h  **** // Externs for menu definitions
  42:processing.h  **** struct MenuPage {
  43:processing.h  ****     const char* name;
  44:processing.h  ****     const MenuItem* items;
  45:processing.h  ****     int num_items;
  46:processing.h  **** };
  47:processing.h  **** 
  48:processing.h  **** struct Processing
  49:processing.h  **** {
  50:processing.h  ****     struct Grain
  51:processing.h  ****     {
  52:processing.h  ****         inline float TriEnv(float pos)
  53:processing.h  ****         {
  54:processing.h  ****             if(pos < 0.5f) return pos * 2.0f; 
  55:processing.h  ****             return (1.0f - pos) * 2.0f;
  56:processing.h  ****         }
  57:processing.h  ****         bool     active = false;
  58:processing.h  ****         float    read_pos;
  59:processing.h  ****         float    increment;
  60:processing.h  ****         float    env_pos;
  61:processing.h  ****         float    env_inc;
  62:processing.h  ****         uint32_t size_samples;
  63:processing.h  **** 
  64:processing.h  ****         void Start(float start_pos, float pitch, uint32_t size_samps, float sample_rate, size_t buf
  65:processing.h  ****         {
  66:processing.h  ****             active       = true;
ARM GAS  /tmp/cc8O3cyV.s 			page 13


  67:processing.h  ****             while(start_pos < 0.0f) start_pos += (float)buffer_len;
  68:processing.h  ****             while(start_pos >= (float)buffer_len) start_pos -= (float)buffer_len;
  69:processing.h  ****             read_pos     = start_pos;
  70:processing.h  ****             increment    = pitch;
  71:processing.h  ****             size_samples = size_samps < 4 ? 4 : size_samps;
  72:processing.h  ****             env_pos      = 0.0f;
  73:processing.h  ****             env_inc      = 1.0f / (float)size_samples;
  74:processing.h  ****         }
  75:processing.h  **** 
  76:processing.h  ****         float Process(float *buffer, size_t buffer_len)
  77:processing.h  ****         {
  78:processing.h  ****             if(!active) return 0.0f;
  79:processing.h  ****             int32_t i_idx  = (int32_t)read_pos;
  80:processing.h  ****             float   frac   = read_pos - i_idx;
  81:processing.h  ****             float   samp_a = buffer[i_idx];
  82:processing.h  ****             float   samp_b = buffer[(i_idx + 1) % buffer_len];
  83:processing.h  ****             float   samp   = samp_a + (samp_b - samp_a) * frac;
  84:processing.h  ****             float amp = TriEnv(env_pos);
  85:processing.h  ****             read_pos += increment;
  86:processing.h  ****             while(read_pos >= buffer_len) read_pos -= buffer_len;
  87:processing.h  ****             while(read_pos < 0) read_pos += buffer_len;
  88:processing.h  ****             env_pos += env_inc;
  89:processing.h  ****             if(env_pos >= 1.0f) active = false;
  90:processing.h  ****             return samp * amp;
  91:processing.h  ****         }
  92:processing.h  ****     };
  93:processing.h  **** 
  94:processing.h  ****     struct Rand
  95:processing.h  ****     {
  96:processing.h  ****         uint32_t seed_ = 1;
  97:processing.h  ****         float Process()
  98:processing.h  ****         {
  99:processing.h  ****             seed_ = (seed_ * 1664525L + 1013904223L) & 0xFFFFFFFF;
 375              		.loc 2 99 28 is_stmt 0 view .LVU92
 376 0000 2349     		ldr	r1, .L28
 377              	.LBE91:
 378              	.LBE90:
 201:processing.cpp ****     if(density_hz < 0.1f) { density_hz = 0.1f; } float base_int = sample_rate_ / density_hz;
 202:processing.cpp ****     float l_rand = (1.0f - stereo_amt) + (rand_.Process() * stereo_amt); 
 379              		.loc 1 202 26 view .LVU93
 380 0002 F7EE006A 		vmov.f32	s13, #1.0e+0
 381              	.LBB98:
 382              	.LBB92:
 383              		.loc 2 99 39 view .LVU94
 384 0006 234A     		ldr	r2, .L28+4
 385              		.loc 2 99 28 view .LVU95
 386 0008 D0F8C030 		ldr	r3, [r0, #192]
 387              	.LBE92:
 388              	.LBE98:
 201:processing.cpp ****     if(density_hz < 0.1f) { density_hz = 0.1f; } float base_int = sample_rate_ / density_hz;
 389              		.loc 1 201 56 discriminator 3 view .LVU96
 390 000c 9FED227A 		vldr.32	s14, .L28+8
 200:processing.cpp ****     if(density_hz < 0.1f) { density_hz = 0.1f; } float base_int = sample_rate_ / density_hz;
 391              		.loc 1 200 11 view .LVU97
 392 0010 90ED266A 		vldr.32	s12, [r0, #152]
 393              	.LVL20:
 200:processing.cpp ****     if(density_hz < 0.1f) { density_hz = 0.1f; } float base_int = sample_rate_ / density_hz;
ARM GAS  /tmp/cc8O3cyV.s 			page 14


 394              		.loc 1 200 56 is_stmt 1 view .LVU98
 395              	.LBB99:
 396              	.LBB93:
 397              		.loc 2 99 39 is_stmt 0 view .LVU99
 398 0014 01FB0323 		mla	r3, r1, r3, r2
 399              	.LBE93:
 400              	.LBE99:
 200:processing.cpp ****     if(density_hz < 0.1f) { density_hz = 0.1f; } float base_int = sample_rate_ / density_hz;
 401              		.loc 1 200 62 view .LVU100
 402 0018 90ED285A 		vldr.32	s10, [r0, #160]
 403              	.LVL21:
 201:processing.cpp ****     if(density_hz < 0.1f) { density_hz = 0.1f; } float base_int = sample_rate_ / density_hz;
 404              		.loc 1 201 5 is_stmt 1 view .LVU101
 201:processing.cpp ****     if(density_hz < 0.1f) { density_hz = 0.1f; } float base_int = sample_rate_ / density_hz;
 405              		.loc 1 201 50 discriminator 3 view .LVU102
 201:processing.cpp ****     if(density_hz < 0.1f) { density_hz = 0.1f; } float base_int = sample_rate_ / density_hz;
 406              		.loc 1 201 56 is_stmt 0 discriminator 3 view .LVU103
 407 001c B4EEC76A 		vcmpe.f32	s12, s14
 408              	.LBB100:
 409              	.LBB94:
 100:processing.h  ****             return (float)seed_ / 4294967295.0f;
 410              		.loc 2 100 20 view .LVU104
 411 0020 07EE903A 		vmov	s15, r3	@ int
 412              	.LBE94:
 413              	.LBE100:
 414              		.loc 1 202 26 view .LVU105
 415 0024 76EEC56A 		vsub.f32	s13, s13, s10
 416              	.LBB101:
 417              	.LBB95:
 418              		.loc 2 100 35 view .LVU106
 419 0028 DFED1C4A 		vldr.32	s9, .L28+12
 420              		.loc 2 100 20 view .LVU107
 421 002c F8EE677A 		vcvt.f32.u32	s15, s15
 422              	.LBE95:
 423              	.LBE101:
 201:processing.cpp ****     if(density_hz < 0.1f) { density_hz = 0.1f; } float base_int = sample_rate_ / density_hz;
 424              		.loc 1 201 56 discriminator 3 view .LVU108
 425 0030 90ED2F4A 		vldr.32	s8, [r0, #188]
 426 0034 F1EE10FA 		vmrs	APSR_nzcv, FPSCR
 427              	.LBB102:
 428              	.LBB103:
  99:processing.h  ****             return (float)seed_ / 4294967295.0f;
 429              		.loc 2 99 39 view .LVU109
 430 0038 01FB0322 		mla	r2, r1, r3, r2
 431              	.LBE103:
 432              	.LBE102:
 433              	.LBB108:
 434              	.LBB96:
 435              		.loc 2 100 35 view .LVU110
 436 003c 67EEA47A 		vmul.f32	s15, s15, s9
 437              	.LBE96:
 438              	.LBE108:
 439              	.LBB109:
 440              	.LBB104:
 441              		.loc 2 100 20 view .LVU111
 442 0040 05EE902A 		vmov	s11, r2	@ int
 443              	.LBE104:
ARM GAS  /tmp/cc8O3cyV.s 			page 15


 444              	.LBE109:
 201:processing.cpp ****     float l_rand = (1.0f - stereo_amt) + (rand_.Process() * stereo_amt); 
 445              		.loc 1 201 56 discriminator 3 view .LVU112
 446 0044 48BF     		it	mi
 447 0046 B0EE476A 		vmovmi.f32	s12, s14
 448              	.LVL22:
 449              	.LBB110:
 450              	.LBB105:
  99:processing.h  ****             return (float)seed_ / 4294967295.0f;
 451              		.loc 2 99 19 view .LVU113
 452 004a C0F8C020 		str	r2, [r0, #192]
 453              	.LBE105:
 454              	.LBE110:
 455              		.loc 1 202 71 discriminator 1 view .LVU114
 456 004e B0EE667A 		vmov.f32	s14, s13
 457              	.LBB111:
 458              	.LBB106:
 459              		.loc 2 100 20 view .LVU115
 460 0052 F8EE655A 		vcvt.f32.u32	s11, s11
 461              	.LBE106:
 462              	.LBE111:
 463              		.loc 1 202 71 discriminator 1 view .LVU116
 464 0056 A5EE277A 		vfma.f32	s14, s10, s15
 201:processing.cpp ****     float l_rand = (1.0f - stereo_amt) + (rand_.Process() * stereo_amt); 
 465              		.loc 1 201 56 discriminator 3 view .LVU117
 466 005a C4EE067A 		vdiv.f32	s15, s8, s12
 467              	.LVL23:
 468              		.loc 1 202 5 is_stmt 1 view .LVU118
 469              	.LBB112:
 470              	.LBI90:
  97:processing.h  ****         {
 471              		.loc 2 97 15 view .LVU119
 472              	.LBB97:
  99:processing.h  ****             return (float)seed_ / 4294967295.0f;
 473              		.loc 2 99 13 view .LVU120
 474              		.loc 2 100 13 view .LVU121
 475              		.loc 2 100 13 is_stmt 0 view .LVU122
 476              	.LBE97:
 477              	.LBE112:
 203:processing.cpp ****     float r_rand = (1.0f - stereo_amt) + (rand_.Process() * stereo_amt);
 478              		.loc 1 203 5 is_stmt 1 view .LVU123
 479              	.LBB113:
 480              	.LBI102:
  97:processing.h  ****         {
 481              		.loc 2 97 15 view .LVU124
 482              	.LBB107:
  99:processing.h  ****             return (float)seed_ / 4294967295.0f;
 483              		.loc 2 99 13 view .LVU125
 484              		.loc 2 100 13 view .LVU126
 485              		.loc 2 100 35 is_stmt 0 view .LVU127
 486 005e 65EEA45A 		vmul.f32	s11, s11, s9
 487              	.LBE107:
 488              	.LBE113:
 489              		.loc 1 203 71 discriminator 1 view .LVU128
 490 0062 E5EE256A 		vfma.f32	s13, s10, s11
 491              	.LVL24:
 204:processing.cpp ****     grain_trig_interval_l = (uint32_t)(base_int * l_rand); 
ARM GAS  /tmp/cc8O3cyV.s 			page 16


 492              		.loc 1 204 5 is_stmt 1 view .LVU129
 205:processing.cpp ****     grain_trig_interval_r = (uint32_t)(base_int * r_rand);
 493              		.loc 1 205 5 view .LVU130
 206:processing.cpp ****     if(grain_trig_interval_l == 0) { grain_trig_interval_l = 1; }
 494              		.loc 1 206 5 view .LVU131
 204:processing.cpp ****     grain_trig_interval_l = (uint32_t)(base_int * l_rand); 
 495              		.loc 1 204 49 is_stmt 0 view .LVU132
 496 0066 27EE877A 		vmul.f32	s14, s15, s14
 497              	.LVL25:
 205:processing.cpp ****     grain_trig_interval_r = (uint32_t)(base_int * r_rand);
 498              		.loc 1 205 49 view .LVU133
 499 006a 67EEA67A 		vmul.f32	s15, s15, s13
 500              	.LVL26:
 204:processing.cpp ****     grain_trig_interval_l = (uint32_t)(base_int * l_rand); 
 501              		.loc 1 204 29 view .LVU134
 502 006e BCEEC77A 		vcvt.u32.f32	s14, s14
 205:processing.cpp ****     grain_trig_interval_r = (uint32_t)(base_int * r_rand);
 503              		.loc 1 205 29 view .LVU135
 504 0072 FCEEE77A 		vcvt.u32.f32	s15, s15
 204:processing.cpp ****     grain_trig_interval_l = (uint32_t)(base_int * l_rand); 
 505              		.loc 1 204 29 view .LVU136
 506 0076 17EE102A 		vmov	r2, s14	@ int
 207:processing.cpp ****     if(grain_trig_interval_r == 0) { grain_trig_interval_r = 1; }
 507              		.loc 1 207 5 view .LVU137
 508 007a 17EE903A 		vmov	r3, s15	@ int
 509              	.LVL27:
 206:processing.cpp ****     if(grain_trig_interval_l == 0) { grain_trig_interval_l = 1; }
 510              		.loc 1 206 5 view .LVU138
 511 007e 012A     		cmp	r2, #1
 512 0080 38BF     		it	cc
 513 0082 0122     		movcc	r2, #1
 514              		.loc 1 207 5 view .LVU139
 515 0084 012B     		cmp	r3, #1
 516 0086 38BF     		it	cc
 517 0088 0123     		movcc	r3, #1
 518 008a C0E90423 		strd	r2, r3, [r0, #16]
 208:processing.cpp **** }
 519              		.loc 1 208 1 view .LVU140
 520 008e 7047     		bx	lr
 521              	.L29:
 522              		.align	2
 523              	.L28:
 524 0090 0D661900 		.word	1664525
 525 0094 5FF36E3C 		.word	1013904223
 526 0098 CDCCCC3D 		.word	1036831949
 527 009c 0000802F 		.word	796917760
 528              		.cfi_endproc
 529              	.LFE4903:
 531              		.section	.text._ZN10Processing4InitER8Hardware,"ax",%progbits
 532              		.align	1
 533              		.p2align 2,,3
 534              		.global	_ZN10Processing4InitER8Hardware
 535              		.syntax unified
 536              		.thumb
 537              		.thumb_func
 539              	_ZN10Processing4InitER8Hardware:
 540              	.LVL28:
ARM GAS  /tmp/cc8O3cyV.s 			page 17


 541              	.LFB4898:
  53:processing.cpp ****     memset(buffer, 0, MAX_BUFFER_SAMPLES * sizeof(float));
 542              		.loc 1 53 1 is_stmt 1 view -0
 543              		.cfi_startproc
 544              		@ args = 0, pretend = 0, frame = 0
 545              		@ frame_needed = 0, uses_anonymous_args = 0
  54:processing.cpp ****     sample_rate_ = hw.sample_rate;
 546              		.loc 1 54 5 view .LVU142
  53:processing.cpp ****     memset(buffer, 0, MAX_BUFFER_SAMPLES * sizeof(float));
 547              		.loc 1 53 1 is_stmt 0 view .LVU143
 548 0000 38B5     		push	{r3, r4, r5, lr}
 549              		.cfi_def_cfa_offset 16
 550              		.cfi_offset 3, -16
 551              		.cfi_offset 4, -12
 552              		.cfi_offset 5, -8
 553              		.cfi_offset 14, -4
  53:processing.cpp ****     memset(buffer, 0, MAX_BUFFER_SAMPLES * sizeof(float));
 554              		.loc 1 53 1 view .LVU144
 555 0002 0D46     		mov	r5, r1
 556 0004 0446     		mov	r4, r0
  54:processing.cpp ****     sample_rate_ = hw.sample_rate;
 557              		.loc 1 54 11 view .LVU145
 558 0006 2F4A     		ldr	r2, .L34
 559 0008 0021     		movs	r1, #0
 560              	.LVL29:
  54:processing.cpp ****     sample_rate_ = hw.sample_rate;
 561              		.loc 1 54 11 view .LVU146
 562 000a 2F48     		ldr	r0, .L34+4
 563              	.LVL30:
  54:processing.cpp ****     sample_rate_ = hw.sample_rate;
 564              		.loc 1 54 11 view .LVU147
 565 000c FFF7FEFF 		bl	memset
 566              	.LVL31:
  55:processing.cpp ****     
 567              		.loc 1 55 5 is_stmt 1 view .LVU148
  55:processing.cpp ****     
 568              		.loc 1 55 18 is_stmt 0 view .LVU149
 569 0010 D5F89801 		ldr	r0, [r5, #408]	@ float
  58:processing.cpp ****     params[PARAM_POST_GAIN] = 0.5f; params[PARAM_BPM] = 120.0f; params[PARAM_DIVISION] = 1.0f; 
 570              		.loc 1 58 28 view .LVU150
 571 0014 4FF07C53 		mov	r3, #1056964608
  60:processing.cpp ****     params[PARAM_SPRAY] = 0.0f; params[PARAM_STEREO] = 0.0f;
 572              		.loc 1 60 87 view .LVU151
 573 0018 2C4D     		ldr	r5, .L34+8
 574              	.LVL32:
  59:processing.cpp ****     params[PARAM_PITCH] = 1.0f; params[PARAM_GRAIN_SIZE] = 0.1f; params[PARAM_GRAINS] = 10.0f; 
 575              		.loc 1 59 88 view .LVU152
 576 001a 4FF07E52 		mov	r2, #1065353216
  59:processing.cpp ****     params[PARAM_PITCH] = 1.0f; params[PARAM_GRAIN_SIZE] = 0.1f; params[PARAM_GRAINS] = 10.0f; 
 577              		.loc 1 59 55 view .LVU153
 578 001e 2C49     		ldr	r1, .L34+12
  55:processing.cpp ****     
 579              		.loc 1 55 18 view .LVU154
 580 0020 C4F8BC00 		str	r0, [r4, #188]	@ float
  58:processing.cpp ****     params[PARAM_POST_GAIN] = 0.5f; params[PARAM_BPM] = 120.0f; params[PARAM_DIVISION] = 1.0f; 
 581              		.loc 1 58 5 is_stmt 1 view .LVU155
  60:processing.cpp ****     params[PARAM_SPRAY] = 0.0f; params[PARAM_STEREO] = 0.0f;
ARM GAS  /tmp/cc8O3cyV.s 			page 18


 582              		.loc 1 60 87 is_stmt 0 view .LVU156
 583 0024 A563     		str	r5, [r4, #56]	@ float
 584              	.LBB114:
  64:processing.cpp ****         effective_params[i] = params[i]; 
 585              		.loc 1 64 29 view .LVU157
 586 0026 04F14805 		add	r5, r4, #72
 587              	.LBE114:
  60:processing.cpp ****     params[PARAM_SPRAY] = 0.0f; params[PARAM_STEREO] = 0.0f;
 588              		.loc 1 60 58 view .LVU158
 589 002a 2A48     		ldr	r0, .L34+16
  58:processing.cpp ****     params[PARAM_POST_GAIN] = 0.5f; params[PARAM_BPM] = 120.0f; params[PARAM_DIVISION] = 1.0f; 
 590              		.loc 1 58 28 view .LVU159
 591 002c A361     		str	r3, [r4, #24]	@ float
  58:processing.cpp ****     params[PARAM_POST_GAIN] = 0.5f; params[PARAM_BPM] = 120.0f; params[PARAM_DIVISION] = 1.0f; 
 592              		.loc 1 58 36 is_stmt 1 view .LVU160
  58:processing.cpp ****     params[PARAM_POST_GAIN] = 0.5f; params[PARAM_BPM] = 120.0f; params[PARAM_DIVISION] = 1.0f; 
 593              		.loc 1 58 59 is_stmt 0 view .LVU161
 594 002e E361     		str	r3, [r4, #28]	@ float
  58:processing.cpp ****     params[PARAM_POST_GAIN] = 0.5f; params[PARAM_BPM] = 120.0f; params[PARAM_DIVISION] = 1.0f; 
 595              		.loc 1 58 67 is_stmt 1 view .LVU162
  58:processing.cpp ****     params[PARAM_POST_GAIN] = 0.5f; params[PARAM_BPM] = 120.0f; params[PARAM_DIVISION] = 1.0f; 
 596              		.loc 1 58 85 is_stmt 0 view .LVU163
 597 0030 2362     		str	r3, [r4, #32]	@ float
  59:processing.cpp ****     params[PARAM_PITCH] = 1.0f; params[PARAM_GRAIN_SIZE] = 0.1f; params[PARAM_GRAINS] = 10.0f; 
 598              		.loc 1 59 5 is_stmt 1 view .LVU164
  59:processing.cpp ****     params[PARAM_PITCH] = 1.0f; params[PARAM_GRAIN_SIZE] = 0.1f; params[PARAM_GRAINS] = 10.0f; 
 599              		.loc 1 59 29 is_stmt 0 view .LVU165
 600 0032 6362     		str	r3, [r4, #36]	@ float
  59:processing.cpp ****     params[PARAM_PITCH] = 1.0f; params[PARAM_GRAIN_SIZE] = 0.1f; params[PARAM_GRAINS] = 10.0f; 
 601              		.loc 1 59 37 is_stmt 1 view .LVU166
  61:processing.cpp ****     
 602              		.loc 1 61 25 is_stmt 0 view .LVU167
 603 0034 0023     		movs	r3, #0
  60:processing.cpp ****     params[PARAM_SPRAY] = 0.0f; params[PARAM_STEREO] = 0.0f;
 604              		.loc 1 60 58 view .LVU168
 605 0036 6063     		str	r0, [r4, #52]	@ float
 606              	.LBB115:
  64:processing.cpp ****         effective_params[i] = params[i]; 
 607              		.loc 1 64 29 view .LVU169
 608 0038 2846     		mov	r0, r5
 609              	.LBE115:
  59:processing.cpp ****     params[PARAM_PITCH] = 1.0f; params[PARAM_GRAIN_SIZE] = 0.1f; params[PARAM_GRAINS] = 10.0f; 
 610              		.loc 1 59 55 view .LVU170
 611 003a A162     		str	r1, [r4, #40]	@ float
  59:processing.cpp ****     params[PARAM_PITCH] = 1.0f; params[PARAM_GRAIN_SIZE] = 0.1f; params[PARAM_GRAINS] = 10.0f; 
 612              		.loc 1 59 65 is_stmt 1 view .LVU171
 613              	.LBB116:
  64:processing.cpp ****         effective_params[i] = params[i]; 
 614              		.loc 1 64 29 is_stmt 0 view .LVU172
 615 003c 0021     		movs	r1, #0
 616              	.LBE116:
  59:processing.cpp ****     params[PARAM_PITCH] = 1.0f; params[PARAM_GRAIN_SIZE] = 0.1f; params[PARAM_GRAINS] = 10.0f; 
 617              		.loc 1 59 88 view .LVU173
 618 003e E262     		str	r2, [r4, #44]	@ float
  60:processing.cpp ****     params[PARAM_SPRAY] = 0.0f; params[PARAM_STEREO] = 0.0f;
 619              		.loc 1 60 5 is_stmt 1 view .LVU174
  60:processing.cpp ****     params[PARAM_SPRAY] = 0.0f; params[PARAM_STEREO] = 0.0f;
ARM GAS  /tmp/cc8O3cyV.s 			page 19


 620              		.loc 1 60 25 is_stmt 0 view .LVU175
 621 0040 2263     		str	r2, [r4, #48]	@ float
  60:processing.cpp ****     params[PARAM_SPRAY] = 0.0f; params[PARAM_STEREO] = 0.0f;
 622              		.loc 1 60 33 is_stmt 1 view .LVU176
  60:processing.cpp ****     params[PARAM_SPRAY] = 0.0f; params[PARAM_STEREO] = 0.0f;
 623              		.loc 1 60 66 view .LVU177
  61:processing.cpp ****     
 624              		.loc 1 61 5 view .LVU178
 625              	.LBB117:
  64:processing.cpp ****         effective_params[i] = params[i]; 
 626              		.loc 1 64 29 is_stmt 0 view .LVU179
 627 0042 3022     		movs	r2, #48
 628              	.LBE117:
  61:processing.cpp ****     
 629              		.loc 1 61 25 view .LVU180
 630 0044 E363     		str	r3, [r4, #60]	@ float
  61:processing.cpp ****     
 631              		.loc 1 61 33 is_stmt 1 view .LVU181
  61:processing.cpp ****     
 632              		.loc 1 61 54 is_stmt 0 view .LVU182
 633 0046 2364     		str	r3, [r4, #64]	@ float
  63:processing.cpp ****         knob_map_amounts[i] = 0.0f; 
 634              		.loc 1 63 5 is_stmt 1 view .LVU183
 635              	.LVL33:
 636              	.LBB118:
  63:processing.cpp ****         knob_map_amounts[i] = 0.0f; 
 637              		.loc 1 63 19 discriminator 1 view .LVU184
  64:processing.cpp ****         effective_params[i] = params[i]; 
 638              		.loc 1 64 29 is_stmt 0 view .LVU185
 639 0048 FFF7FEFF 		bl	memset
 640              	.LVL34:
  65:processing.cpp ****     }
 641              		.loc 1 65 29 view .LVU186
 642 004c 04F11803 		add	r3, r4, #24
 643 0050 04F17802 		add	r2, r4, #120
 644              	.L31:
 645 0054 D3F800E0 		ldr	lr, [r3]	@ unaligned
 646 0058 1033     		adds	r3, r3, #16
 647 005a 53F80CCC 		ldr	ip, [r3, #-12]	@ unaligned
 648 005e 1032     		adds	r2, r2, #16
 649 0060 53F8080C 		ldr	r0, [r3, #-8]	@ unaligned
 650 0064 53F8041C 		ldr	r1, [r3, #-4]	@ unaligned
 651 0068 AB42     		cmp	r3, r5
 652 006a 42F810EC 		str	lr, [r2, #-16]	@ unaligned
 653 006e 42F80CCC 		str	ip, [r2, #-12]	@ unaligned
 654 0072 42F8080C 		str	r0, [r2, #-8]	@ unaligned
 655 0076 42F8041C 		str	r1, [r2, #-4]	@ unaligned
 656 007a EBD1     		bne	.L31
 657              	.LVL35:
  65:processing.cpp ****     }
 658              		.loc 1 65 29 view .LVU187
 659              	.LBE118:
  68:processing.cpp ****     
 660              		.loc 1 68 5 is_stmt 1 view .LVU188
  68:processing.cpp ****     
 661              		.loc 1 68 48 is_stmt 0 view .LVU189
 662 007c D4ED2B7A 		vldr.32	s15, [r4, #172]	@ int
ARM GAS  /tmp/cc8O3cyV.s 			page 20


  68:processing.cpp ****     
 663              		.loc 1 68 18 view .LVU190
 664 0080 0023     		movs	r3, #0
 665              	.LBB119:
 666              	.LBB120:
  89:processing.cpp ****     current_menu_size = kPages[current_page_idx].num_items;
 667              		.loc 1 89 24 view .LVU191
 668 0082 154A     		ldr	r2, .L34+20
  90:processing.cpp ****     selected_item_idx = 0;
 669              		.loc 1 90 23 view .LVU192
 670 0084 0421     		movs	r1, #4
 671              	.LBE120:
 672              	.LBE119:
  68:processing.cpp ****     
 673              		.loc 1 68 48 view .LVU193
 674 0086 F8EEE77A 		vcvt.f32.s32	s15, s15
 675              	.LBB125:
 676              	.LBB121:
  88:processing.cpp ****     current_menu_items = kPages[current_page_idx].items;
 677              		.loc 1 88 23 view .LVU194
 678 008a 1448     		ldr	r0, .L34+24
  89:processing.cpp ****     current_menu_size = kPages[current_page_idx].num_items;
 679              		.loc 1 89 24 view .LVU195
 680 008c C4F8D420 		str	r2, [r4, #212]
 681              	.LBE121:
 682              	.LBE125:
  77:processing.cpp **** 
 683              		.loc 1 77 20 view .LVU196
 684 0090 0022     		movs	r2, #0
 685              	.LBB126:
 686              	.LBB122:
  88:processing.cpp ****     current_menu_items = kPages[current_page_idx].items;
 687              		.loc 1 88 23 view .LVU197
 688 0092 C4F8D000 		str	r0, [r4, #208]
 689              	.LBE122:
 690              	.LBE126:
  79:processing.cpp ****     UpdateGrainParams();
 691              		.loc 1 79 20 view .LVU198
 692 0096 2046     		mov	r0, r4
  68:processing.cpp ****     
 693              		.loc 1 68 18 view .LVU199
 694 0098 C4F8A830 		str	r3, [r4, #168]
  68:processing.cpp ****     
 695              		.loc 1 68 23 is_stmt 1 view .LVU200
  71:processing.cpp ****     advanced_mode = false;
 696              		.loc 1 71 22 is_stmt 0 view .LVU201
 697 009c C4F8C830 		str	r3, [r4, #200]
  72:processing.cpp ****     SetPage(0);
 698              		.loc 1 72 19 view .LVU202
 699 00a0 84F8CC30 		strb	r3, [r4, #204]
  68:processing.cpp ****     
 700              		.loc 1 68 48 view .LVU203
 701 00a4 C4ED0B7A 		vstr.32	s15, [r4, #44]
  71:processing.cpp ****     advanced_mode = false;
 702              		.loc 1 71 5 is_stmt 1 view .LVU204
  72:processing.cpp ****     SetPage(0);
 703              		.loc 1 72 5 view .LVU205
ARM GAS  /tmp/cc8O3cyV.s 			page 21


  73:processing.cpp ****     
 704              		.loc 1 73 5 view .LVU206
 705              	.LVL36:
 706              	.LBB127:
 707              	.LBI119:
  83:processing.cpp ****     if (page_idx < 0) page_idx = kNumPages - 1;
 708              		.loc 1 83 6 view .LVU207
 709              	.LBB123:
  84:processing.cpp ****     if (page_idx >= kNumPages) page_idx = 0;
 710              		.loc 1 84 5 view .LVU208
  85:processing.cpp ****     
 711              		.loc 1 85 5 view .LVU209
  87:processing.cpp ****     current_page_name = kPages[current_page_idx].name;
 712              		.loc 1 87 5 view .LVU210
  88:processing.cpp ****     current_menu_items = kPages[current_page_idx].items;
 713              		.loc 1 88 5 view .LVU211
  89:processing.cpp ****     current_menu_size = kPages[current_page_idx].num_items;
 714              		.loc 1 89 5 view .LVU212
  90:processing.cpp ****     selected_item_idx = 0;
 715              		.loc 1 90 5 view .LVU213
  91:processing.cpp ****     ui_state = STATE_MENU_NAV;
 716              		.loc 1 91 5 view .LVU214
  92:processing.cpp **** }
 717              		.loc 1 92 14 is_stmt 0 view .LVU215
 718 00a8 84F8C430 		strb	r3, [r4, #196]
 719              	.LBE123:
 720              	.LBE127:
  76:processing.cpp ****     enc1_hold_time = 0.0f;
 721              		.loc 1 76 18 view .LVU216
 722 00ac 84F8E430 		strb	r3, [r4, #228]
  77:processing.cpp **** 
 723              		.loc 1 77 20 view .LVU217
 724 00b0 C4F8E820 		str	r2, [r4, #232]	@ float
 725              	.LBB128:
 726              	.LBB124:
  90:processing.cpp ****     selected_item_idx = 0;
 727              		.loc 1 90 23 view .LVU218
 728 00b4 C4E93613 		strd	r1, r3, [r4, #216]
  92:processing.cpp **** }
 729              		.loc 1 92 5 is_stmt 1 view .LVU219
 730              	.LVL37:
  92:processing.cpp **** }
 731              		.loc 1 92 5 is_stmt 0 view .LVU220
 732              	.LBE124:
 733              	.LBE128:
  76:processing.cpp ****     enc1_hold_time = 0.0f;
 734              		.loc 1 76 5 is_stmt 1 view .LVU221
  77:processing.cpp **** 
 735              		.loc 1 77 5 view .LVU222
  79:processing.cpp ****     UpdateGrainParams();
 736              		.loc 1 79 5 view .LVU223
  79:processing.cpp ****     UpdateGrainParams();
 737              		.loc 1 79 20 is_stmt 0 view .LVU224
 738 00b8 FFF7FEFF 		bl	_ZN10Processing15UpdateBufferLenEv
 739              	.LVL38:
  80:processing.cpp **** }
 740              		.loc 1 80 5 is_stmt 1 view .LVU225
ARM GAS  /tmp/cc8O3cyV.s 			page 22


  81:processing.cpp **** 
 741              		.loc 1 81 1 is_stmt 0 view .LVU226
 742 00bc BDE83840 		pop	{r3, r4, r5, lr}
 743              		.cfi_restore 14
 744              		.cfi_restore 5
 745              		.cfi_restore 4
 746              		.cfi_restore 3
 747              		.cfi_def_cfa_offset 0
 748              	.LVL39:
  80:processing.cpp **** }
 749              		.loc 1 80 22 view .LVU227
 750 00c0 FFF7FEBF 		b	_ZN10Processing17UpdateGrainParamsEv
 751              	.LVL40:
 752              	.L35:
 753              		.align	2
 754              	.L34:
 755 00c4 00DC0500 		.word	384000
 756 00c8 00000000 		.word	_ZN10Processing6bufferE
 757 00cc 00002041 		.word	1092616192
 758 00d0 0000F042 		.word	1123024896
 759 00d4 CDCCCC3D 		.word	1036831949
 760 00d8 00000000 		.word	_ZL9kItemsMix
 761 00dc 00000000 		.word	.LC0
 762              		.cfi_endproc
 763              	.LFE4898:
 765              		.section	.text._ZN10Processing8ControlsER8Hardware,"ax",%progbits
 766              		.align	1
 767              		.p2align 2,,3
 768              		.global	_ZN10Processing8ControlsER8Hardware
 769              		.syntax unified
 770              		.thumb
 771              		.thumb_func
 773              	_ZN10Processing8ControlsER8Hardware:
 774              	.LVL41:
 775              	.LFB4901:
 111:processing.cpp ****     // --- Encoder 1: Interaction Logic ---
 776              		.loc 1 111 1 is_stmt 1 view -0
 777              		.cfi_startproc
 778              		@ args = 0, pretend = 0, frame = 0
 779              		@ frame_needed = 0, uses_anonymous_args = 0
 115:processing.cpp ****     if (enc1_pressed) {
 780              		.loc 1 115 5 view .LVU229
 111:processing.cpp ****     // --- Encoder 1: Interaction Logic ---
 781              		.loc 1 111 1 is_stmt 0 view .LVU230
 782 0000 70B5     		push	{r4, r5, r6, lr}
 783              		.cfi_def_cfa_offset 16
 784              		.cfi_offset 4, -16
 785              		.cfi_offset 5, -12
 786              		.cfi_offset 6, -8
 787              		.cfi_offset 14, -4
 788              	.LBB159:
 789              	.LBB160:
 790              	.LBB161:
 791              		.file 3 "libDaisy/src/hid/switch.h"
   1:libDaisy/src/hid/switch.h **** #pragma once
   2:libDaisy/src/hid/switch.h **** #ifndef DSY_SWITCH_H
   3:libDaisy/src/hid/switch.h **** #define DSY_SWITCH_H
ARM GAS  /tmp/cc8O3cyV.s 			page 23


   4:libDaisy/src/hid/switch.h **** #include "daisy_core.h"
   5:libDaisy/src/hid/switch.h **** #include "per/gpio.h"
   6:libDaisy/src/hid/switch.h **** #include "sys/system.h"
   7:libDaisy/src/hid/switch.h **** 
   8:libDaisy/src/hid/switch.h **** namespace daisy
   9:libDaisy/src/hid/switch.h **** {
  10:libDaisy/src/hid/switch.h **** /** 
  11:libDaisy/src/hid/switch.h ****     Generic Class for handling momentary/latching switches \n 
  12:libDaisy/src/hid/switch.h ****     Inspired/influenced by Mutable Instruments (pichenettes) Switch classes
  13:libDaisy/src/hid/switch.h ****     @author Stephen Hensley
  14:libDaisy/src/hid/switch.h ****     @date December 2019
  15:libDaisy/src/hid/switch.h ****     @ingroup controls
  16:libDaisy/src/hid/switch.h **** */
  17:libDaisy/src/hid/switch.h **** class Switch
  18:libDaisy/src/hid/switch.h **** {
  19:libDaisy/src/hid/switch.h ****   public:
  20:libDaisy/src/hid/switch.h ****     /** Specifies the expected behavior of the switch */
  21:libDaisy/src/hid/switch.h ****     enum Type
  22:libDaisy/src/hid/switch.h ****     {
  23:libDaisy/src/hid/switch.h ****         TYPE_TOGGLE,    /**< & */
  24:libDaisy/src/hid/switch.h ****         TYPE_MOMENTARY, /**< & */
  25:libDaisy/src/hid/switch.h ****     };
  26:libDaisy/src/hid/switch.h ****     /** Specifies whether the pressed is HIGH or LOW. */
  27:libDaisy/src/hid/switch.h ****     enum Polarity
  28:libDaisy/src/hid/switch.h ****     {
  29:libDaisy/src/hid/switch.h ****         POLARITY_NORMAL,   /**< & */
  30:libDaisy/src/hid/switch.h ****         POLARITY_INVERTED, /**< & */
  31:libDaisy/src/hid/switch.h ****     };
  32:libDaisy/src/hid/switch.h **** 
  33:libDaisy/src/hid/switch.h ****     Switch() {}
  34:libDaisy/src/hid/switch.h ****     ~Switch() {}
  35:libDaisy/src/hid/switch.h **** 
  36:libDaisy/src/hid/switch.h ****     /** 
  37:libDaisy/src/hid/switch.h ****     Initializes the switch object with a given port/pin combo.
  38:libDaisy/src/hid/switch.h ****     \param pin port/pin object to tell the switch which hardware pin to use.
  39:libDaisy/src/hid/switch.h ****     \param update_rate Does nothing. Backwards compatibility until next breaking update.
  40:libDaisy/src/hid/switch.h ****     \param t switch type -- Default: TYPE_MOMENTARY
  41:libDaisy/src/hid/switch.h ****     \param pol switch polarity -- Default: POLARITY_INVERTED
  42:libDaisy/src/hid/switch.h ****     \param pu switch pull up/down -- Default: PULL_UP
  43:libDaisy/src/hid/switch.h ****     */
  44:libDaisy/src/hid/switch.h ****     void Init(Pin        pin,
  45:libDaisy/src/hid/switch.h ****               float      update_rate,
  46:libDaisy/src/hid/switch.h ****               Type       t,
  47:libDaisy/src/hid/switch.h ****               Polarity   pol,
  48:libDaisy/src/hid/switch.h ****               GPIO::Pull pu = GPIO::Pull::PULLUP);
  49:libDaisy/src/hid/switch.h **** 
  50:libDaisy/src/hid/switch.h ****     /**
  51:libDaisy/src/hid/switch.h ****        Simplified Init.
  52:libDaisy/src/hid/switch.h ****        \param pin port/pin object to tell the switch which hardware pin to use.
  53:libDaisy/src/hid/switch.h ****        \param update_rate Left for backwards compatibility until next breaking change.
  54:libDaisy/src/hid/switch.h ****     */
  55:libDaisy/src/hid/switch.h ****     void Init(Pin pin, float update_rate = 0.f);
  56:libDaisy/src/hid/switch.h **** 
  57:libDaisy/src/hid/switch.h ****     /** 
  58:libDaisy/src/hid/switch.h ****     Called at update_rate to debounce and handle timing for the switch.
  59:libDaisy/src/hid/switch.h ****     In order for events not to be missed, its important that the Edge/Pressed checks
  60:libDaisy/src/hid/switch.h ****     be made at the same rate as the debounce function is being called.
ARM GAS  /tmp/cc8O3cyV.s 			page 24


  61:libDaisy/src/hid/switch.h ****     */
  62:libDaisy/src/hid/switch.h ****     void Debounce();
  63:libDaisy/src/hid/switch.h **** 
  64:libDaisy/src/hid/switch.h ****     /** \return true if a button was just pressed. */
  65:libDaisy/src/hid/switch.h ****     inline bool RisingEdge() const { return updated_ ? state_ == 0x7f : false; }
  66:libDaisy/src/hid/switch.h **** 
  67:libDaisy/src/hid/switch.h ****     /** \return true if the button was just released */
  68:libDaisy/src/hid/switch.h ****     inline bool FallingEdge() const
  69:libDaisy/src/hid/switch.h ****     {
  70:libDaisy/src/hid/switch.h ****         return updated_ ? state_ == 0x80 : false;
  71:libDaisy/src/hid/switch.h ****     }
  72:libDaisy/src/hid/switch.h **** 
  73:libDaisy/src/hid/switch.h ****     /** \return true if the button is held down (or if the toggle is on) */
  74:libDaisy/src/hid/switch.h ****     inline bool Pressed() const { return state_ == 0xff; }
 792              		.loc 3 74 42 view .LVU231
 793 0002 91F89850 		ldrb	r5, [r1, #152]	@ zero_extendqisi2
 794              	.LBE161:
 795              	.LBE160:
 796              	.LBE159:
 111:processing.cpp ****     // --- Encoder 1: Interaction Logic ---
 797              		.loc 1 111 1 view .LVU232
 798 0006 0E46     		mov	r6, r1
 799              	.LVL42:
 800              	.LBB164:
 801              	.LBI159:
 802              		.file 4 "libDaisy/src/hid/encoder.h"
   1:libDaisy/src/hid/encoder.h **** #pragma once
   2:libDaisy/src/hid/encoder.h **** #ifndef DSY_ENCODER_H
   3:libDaisy/src/hid/encoder.h **** #define DSY_ENCODER_H
   4:libDaisy/src/hid/encoder.h **** #include "daisy_core.h"
   5:libDaisy/src/hid/encoder.h **** #include "per/gpio.h"
   6:libDaisy/src/hid/encoder.h **** #include "hid/switch.h"
   7:libDaisy/src/hid/encoder.h **** 
   8:libDaisy/src/hid/encoder.h **** namespace daisy
   9:libDaisy/src/hid/encoder.h **** {
  10:libDaisy/src/hid/encoder.h **** /** 
  11:libDaisy/src/hid/encoder.h ****     @brief Generic Class for handling Quadrature Encoders \n 
  12:libDaisy/src/hid/encoder.h ****     Inspired/influenced by Mutable Instruments (pichenettes) Encoder classes
  13:libDaisy/src/hid/encoder.h ****     @author Stephen Hensley
  14:libDaisy/src/hid/encoder.h ****     @date December 2019
  15:libDaisy/src/hid/encoder.h ****     @ingroup controls
  16:libDaisy/src/hid/encoder.h **** */
  17:libDaisy/src/hid/encoder.h **** class Encoder
  18:libDaisy/src/hid/encoder.h **** {
  19:libDaisy/src/hid/encoder.h ****   public:
  20:libDaisy/src/hid/encoder.h ****     Encoder() {}
  21:libDaisy/src/hid/encoder.h ****     ~Encoder() {}
  22:libDaisy/src/hid/encoder.h **** 
  23:libDaisy/src/hid/encoder.h ****     /** Initializes the encoder with the specified hardware pins.
  24:libDaisy/src/hid/encoder.h ****      * Update rate is to be deprecated in a future release
  25:libDaisy/src/hid/encoder.h ****      */
  26:libDaisy/src/hid/encoder.h ****     void Init(Pin a, Pin b, Pin click, float update_rate = 0.f);
  27:libDaisy/src/hid/encoder.h ****     /** Called at update_rate to debounce and handle timing for the switch.
  28:libDaisy/src/hid/encoder.h ****      * In order for events not to be missed, its important that the Edge/Pressed checks be made at 
  29:libDaisy/src/hid/encoder.h ****      */
  30:libDaisy/src/hid/encoder.h ****     void Debounce();
  31:libDaisy/src/hid/encoder.h **** 
ARM GAS  /tmp/cc8O3cyV.s 			page 25


  32:libDaisy/src/hid/encoder.h ****     /** Returns +1 if the encoder was turned clockwise, -1 if it was turned counter-clockwise, or 0
  33:libDaisy/src/hid/encoder.h ****     inline int32_t Increment() const { return updated_ ? inc_ : 0; }
  34:libDaisy/src/hid/encoder.h **** 
  35:libDaisy/src/hid/encoder.h ****     /** Returns true if the encoder was just pressed. */
  36:libDaisy/src/hid/encoder.h ****     inline bool RisingEdge() const { return sw_.RisingEdge(); }
  37:libDaisy/src/hid/encoder.h **** 
  38:libDaisy/src/hid/encoder.h ****     /** Returns true if the encoder was just released. */
  39:libDaisy/src/hid/encoder.h ****     inline bool FallingEdge() const { return sw_.FallingEdge(); }
  40:libDaisy/src/hid/encoder.h **** 
  41:libDaisy/src/hid/encoder.h ****     /** Returns true while the encoder is held down.*/
  42:libDaisy/src/hid/encoder.h ****     inline bool Pressed() const { return sw_.Pressed(); }
 803              		.loc 4 42 17 is_stmt 1 view .LVU233
 804              		.loc 4 42 35 view .LVU234
 805              	.LBB163:
 806              	.LBI160:
 807              		.loc 3 74 17 view .LVU235
 808              	.LBB162:
 809              		.loc 3 74 35 view .LVU236
 810              		.loc 3 74 35 is_stmt 0 view .LVU237
 811              	.LBE162:
 812              	.LBE163:
 813              	.LBE164:
 116:processing.cpp ****         // Increment based on actual Callback Rate (approx 12kHz for block size 4)
 814              		.loc 1 116 5 is_stmt 1 view .LVU238
 111:processing.cpp ****     // --- Encoder 1: Interaction Logic ---
 815              		.loc 1 111 1 is_stmt 0 view .LVU239
 816 0008 0446     		mov	r4, r0
 116:processing.cpp ****         // Increment based on actual Callback Rate (approx 12kHz for block size 4)
 817              		.loc 1 116 5 view .LVU240
 818 000a FF2D     		cmp	r5, #255
 819 000c 00F08380 		beq	.L37
 128:processing.cpp ****         // Only trigger click if the hold action was NOT triggered
 820              		.loc 1 128 5 is_stmt 1 view .LVU241
 821              	.LVL43:
 822              	.LBB165:
 823              	.LBB166:
 824              	.LBI166:
  39:libDaisy/src/hid/encoder.h **** 
 825              		.loc 4 39 17 view .LVU242
  39:libDaisy/src/hid/encoder.h **** 
 826              		.loc 4 39 39 view .LVU243
 827              	.LBB167:
 828              	.LBI167:
  68:libDaisy/src/hid/switch.h ****     {
 829              		.loc 3 68 17 view .LVU244
 830              	.LBB168:
  70:libDaisy/src/hid/switch.h ****     }
 831              		.loc 3 70 9 view .LVU245
  70:libDaisy/src/hid/switch.h ****     }
 832              		.loc 3 70 25 is_stmt 0 view .LVU246
 833 0010 91F88030 		ldrb	r3, [r1, #128]	@ zero_extendqisi2
 834 0014 002B     		cmp	r3, #0
 835 0016 5AD1     		bne	.L38
 836              	.LVL44:
 837              	.L41:
  70:libDaisy/src/hid/switch.h ****     }
 838              		.loc 3 70 25 view .LVU247
ARM GAS  /tmp/cc8O3cyV.s 			page 26


 839              	.LBE168:
 840              	.LBE167:
 841              	.LBE166:
 842              	.LBE165:
 146:processing.cpp ****         enc1_holding = false;
 843              		.loc 1 146 9 is_stmt 1 view .LVU248
 146:processing.cpp ****         enc1_holding = false;
 844              		.loc 1 146 24 is_stmt 0 view .LVU249
 845 0018 0022     		movs	r2, #0
 147:processing.cpp ****     }
 846              		.loc 1 147 22 view .LVU250
 847 001a 0023     		movs	r3, #0
 146:processing.cpp ****         enc1_holding = false;
 848              		.loc 1 146 24 view .LVU251
 849 001c C4F8E820 		str	r2, [r4, #232]	@ float
 147:processing.cpp ****     }
 850              		.loc 1 147 9 is_stmt 1 view .LVU252
 147:processing.cpp ****     }
 851              		.loc 1 147 22 is_stmt 0 view .LVU253
 852 0020 84F8E430 		strb	r3, [r4, #228]
 853              	.L39:
 153:processing.cpp ****         int page_inc = hw.encoder2.Increment();
 854              		.loc 1 153 5 is_stmt 1 view .LVU254
 855              	.LBB184:
 856 0024 94F8CC20 		ldrb	r2, [r4, #204]	@ zero_extendqisi2
 857              	.LBE184:
 858              	.LBB194:
 859              	.LBB195:
  33:libDaisy/src/hid/encoder.h **** 
 860              		.loc 4 33 47 is_stmt 0 view .LVU255
 861 0028 96F87830 		ldrb	r3, [r6, #120]	@ zero_extendqisi2
 862              	.LBE195:
 863              	.LBE194:
 864              	.LBB201:
 153:processing.cpp ****         int page_inc = hw.encoder2.Increment();
 865              		.loc 1 153 5 view .LVU256
 866 002c 12BB     		cbnz	r2, .L48
 153:processing.cpp ****         int page_inc = hw.encoder2.Increment();
 867              		.loc 1 153 27 discriminator 1 view .LVU257
 868 002e 94F8C420 		ldrb	r2, [r4, #196]	@ zero_extendqisi2
 153:processing.cpp ****         int page_inc = hw.encoder2.Increment();
 869              		.loc 1 153 24 discriminator 1 view .LVU258
 870 0032 002A     		cmp	r2, #0
 871 0034 68D1     		bne	.L49
 872              	.LBB185:
 154:processing.cpp ****         if (page_inc != 0) {
 873              		.loc 1 154 9 is_stmt 1 view .LVU259
 874              	.LVL45:
 875              	.LBB186:
 876              	.LBI186:
  33:libDaisy/src/hid/encoder.h **** 
 877              		.loc 4 33 20 view .LVU260
 878              	.LBB187:
  33:libDaisy/src/hid/encoder.h **** 
 879              		.loc 4 33 40 view .LVU261
  33:libDaisy/src/hid/encoder.h **** 
 880              		.loc 4 33 56 is_stmt 0 view .LVU262
ARM GAS  /tmp/cc8O3cyV.s 			page 27


 881 0036 96F8D410 		ldrb	r1, [r6, #212]	@ zero_extendqisi2
 882 003a 21B1     		cbz	r1, .L50
  33:libDaisy/src/hid/encoder.h **** 
 883              		.loc 4 33 56 discriminator 1 view .LVU263
 884 003c D6F82811 		ldr	r1, [r6, #296]
 885              	.LVL46:
  33:libDaisy/src/hid/encoder.h **** 
 886              		.loc 4 33 56 discriminator 1 view .LVU264
 887              	.LBE187:
 888              	.LBE186:
 155:processing.cpp ****             SetPage(current_page_idx + page_inc);
 889              		.loc 1 155 9 is_stmt 1 view .LVU265
 890 0040 0029     		cmp	r1, #0
 891 0042 40F0A580 		bne	.L94
 892              	.LVL47:
 893              	.L50:
 155:processing.cpp ****             SetPage(current_page_idx + page_inc);
 894              		.loc 1 155 9 is_stmt 0 view .LVU266
 895              	.LBE185:
 896              	.LBE201:
 162:processing.cpp ****     
 897              		.loc 1 162 5 is_stmt 1 view .LVU267
 898              	.LBB202:
 899              	.LBI194:
  33:libDaisy/src/hid/encoder.h **** 
 900              		.loc 4 33 20 view .LVU268
 901              	.LBB196:
  33:libDaisy/src/hid/encoder.h **** 
 902              		.loc 4 33 40 view .LVU269
  33:libDaisy/src/hid/encoder.h **** 
 903              		.loc 4 33 56 is_stmt 0 view .LVU270
 904 0046 73B1     		cbz	r3, .L53
 905              	.LVL48:
 906              	.L59:
  33:libDaisy/src/hid/encoder.h **** 
 907              		.loc 4 33 56 discriminator 1 view .LVU271
 908 0048 D6F8CC30 		ldr	r3, [r6, #204]
 909              	.LVL49:
  33:libDaisy/src/hid/encoder.h **** 
 910              		.loc 4 33 56 discriminator 1 view .LVU272
 911              	.LBE196:
 912              	.LBE202:
 164:processing.cpp ****     {
 913              		.loc 1 164 5 is_stmt 1 view .LVU273
 914              	.L58:
 915              	.LBB203:
 167:processing.cpp ****             selected_item_idx += enc1_inc;
 916              		.loc 1 167 9 view .LVU274
 917 004c 5BB1     		cbz	r3, .L53
 168:processing.cpp ****             if (selected_item_idx < 0) selected_item_idx = 0;
 918              		.loc 1 168 13 view .LVU275
 169:processing.cpp ****             if (selected_item_idx >= current_menu_size) selected_item_idx = current_menu_size - 1;
 919              		.loc 1 169 13 view .LVU276
 170:processing.cpp ****         }
 920              		.loc 1 170 38 is_stmt 0 view .LVU277
 921 004e D4E93621 		ldrd	r2, r1, [r4, #216]
 168:processing.cpp ****             if (selected_item_idx < 0) selected_item_idx = 0;
ARM GAS  /tmp/cc8O3cyV.s 			page 28


 922              		.loc 1 168 31 view .LVU278
 923 0052 0B44     		add	r3, r3, r1
 924              	.LVL50:
 169:processing.cpp ****             if (selected_item_idx >= current_menu_size) selected_item_idx = current_menu_size - 1;
 925              		.loc 1 169 13 view .LVU279
 926 0054 23EAE373 		bic	r3, r3, r3, asr #31
 170:processing.cpp ****         }
 927              		.loc 1 170 13 view .LVU280
 928 0058 9A42     		cmp	r2, r3
 929 005a C4F8DC30 		str	r3, [r4, #220]
 170:processing.cpp ****         }
 930              		.loc 1 170 13 is_stmt 1 view .LVU281
 931 005e 02DC     		bgt	.L53
 170:processing.cpp ****         }
 932              		.loc 1 170 57 discriminator 1 view .LVU282
 170:processing.cpp ****         }
 933              		.loc 1 170 95 is_stmt 0 discriminator 1 view .LVU283
 934 0060 013A     		subs	r2, r2, #1
 170:processing.cpp ****         }
 935              		.loc 1 170 75 discriminator 1 view .LVU284
 936 0062 C4F8DC20 		str	r2, [r4, #220]
 937              	.LVL51:
 938              	.L53:
 170:processing.cpp ****         }
 939              		.loc 1 170 75 discriminator 1 view .LVU285
 940              	.LBE203:
 186:processing.cpp ****     UpdateGrainParams();
 941              		.loc 1 186 5 is_stmt 1 view .LVU286
 186:processing.cpp ****     UpdateGrainParams();
 942              		.loc 1 186 20 is_stmt 0 view .LVU287
 943 0066 2046     		mov	r0, r4
 944 0068 FFF7FEFF 		bl	_ZN10Processing15UpdateBufferLenEv
 945              	.LVL52:
 187:processing.cpp **** }
 946              		.loc 1 187 5 is_stmt 1 view .LVU288
 188:processing.cpp **** 
 947              		.loc 1 188 1 is_stmt 0 view .LVU289
 948 006c BDE87040 		pop	{r4, r5, r6, lr}
 949              		.cfi_remember_state
 950              		.cfi_restore 14
 951              		.cfi_restore 6
 952              		.cfi_restore 5
 953              		.cfi_restore 4
 954              		.cfi_def_cfa_offset 0
 955              	.LVL53:
 187:processing.cpp **** }
 956              		.loc 1 187 22 view .LVU290
 957 0070 FFF7FEBF 		b	_ZN10Processing17UpdateGrainParamsEv
 958              	.LVL54:
 959              	.L48:
 960              		.cfi_restore_state
 162:processing.cpp ****     
 961              		.loc 1 162 5 is_stmt 1 view .LVU291
 962              	.LBB222:
  33:libDaisy/src/hid/encoder.h **** 
 963              		.loc 4 33 20 view .LVU292
 964              	.LBB197:
ARM GAS  /tmp/cc8O3cyV.s 			page 29


  33:libDaisy/src/hid/encoder.h **** 
 965              		.loc 4 33 40 view .LVU293
  33:libDaisy/src/hid/encoder.h **** 
 966              		.loc 4 33 56 is_stmt 0 view .LVU294
 967 0074 002B     		cmp	r3, #0
 968 0076 F6D0     		beq	.L53
 969              	.LBE197:
 970              	.LBE222:
 971              	.LBB223:
 164:processing.cpp ****     {
 972              		.loc 1 164 9 view .LVU295
 973 0078 94F8C420 		ldrb	r2, [r4, #196]	@ zero_extendqisi2
 974              	.LBE223:
 975              	.LBB224:
 976              	.LBB198:
  33:libDaisy/src/hid/encoder.h **** 
 977              		.loc 4 33 56 discriminator 1 view .LVU296
 978 007c D6F8CC30 		ldr	r3, [r6, #204]
 979              	.LVL55:
  33:libDaisy/src/hid/encoder.h **** 
 980              		.loc 4 33 56 discriminator 1 view .LVU297
 981              	.LBE198:
 982              	.LBE224:
 164:processing.cpp ****     {
 983              		.loc 1 164 5 is_stmt 1 view .LVU298
 984              	.LBB225:
 985 0080 002A     		cmp	r2, #0
 986 0082 E3D0     		beq	.L58
 164:processing.cpp ****     {
 987              		.loc 1 164 5 is_stmt 0 view .LVU299
 988              	.LBE225:
 173:processing.cpp ****     {
 989              		.loc 1 173 10 is_stmt 1 view .LVU300
 176:processing.cpp ****             float scale = 0.01f;
 990              		.loc 1 176 9 view .LVU301
 991              	.LBB226:
 992              	.LBB204:
 993              	.LBB205:
 994 0084 002B     		cmp	r3, #0
 995 0086 EED0     		beq	.L53
 996              	.L96:
 176:processing.cpp ****             float scale = 0.01f;
 997              		.loc 1 176 9 is_stmt 0 view .LVU302
 998 0088 012A     		cmp	r2, #1
 999 008a ECD1     		bne	.L53
 1000              	.LBB206:
 177:processing.cpp ****             if (hw.encoder1.Pressed()) scale = 0.05f; // Faster if pressed while turning
 1001              		.loc 1 177 13 is_stmt 1 view .LVU303
 1002              	.LVL56:
 178:processing.cpp ****             
 1003              		.loc 1 178 13 view .LVU304
 1004              	.LBB207:
 1005              	.LBI207:
 1006              		.loc 4 42 17 view .LVU305
 1007              		.loc 4 42 35 view .LVU306
 1008              	.LBB208:
 1009              	.LBI208:
ARM GAS  /tmp/cc8O3cyV.s 			page 30


 1010              		.loc 3 74 17 view .LVU307
 1011              	.LBB209:
 1012              		.loc 3 74 35 view .LVU308
 1013              		.loc 3 74 35 is_stmt 0 view .LVU309
 1014              	.LBE209:
 1015              	.LBE208:
 1016              	.LBE207:
 178:processing.cpp ****             
 1017              		.loc 1 178 13 discriminator 1 view .LVU310
 1018 008c 96F89820 		ldrb	r2, [r6, #152]	@ zero_extendqisi2
 180:processing.cpp ****             params[edit_param_target] = fclamp(params[edit_param_target], 0.0f, 1.0f);
 1019              		.loc 1 180 42 view .LVU311
 1020 0090 07EE903A 		vmov	s15, r3	@ int
 1021              	.LBB210:
 1022              	.LBB211:
 1023              	.LBB212:
 1024              		.file 5 "DaisySP/Source/Utility/dsp.h"
   1:DaisySP/Source/Utility/dsp.h **** /*
   2:DaisySP/Source/Utility/dsp.h **** Copyright (c) 2020 Electrosmith, Corp, Emilie Gillet
   3:DaisySP/Source/Utility/dsp.h **** 
   4:DaisySP/Source/Utility/dsp.h **** Use of this source code is governed by an MIT-style
   5:DaisySP/Source/Utility/dsp.h **** license that can be found in the LICENSE file or at
   6:DaisySP/Source/Utility/dsp.h **** https://opensource.org/licenses/MIT.
   7:DaisySP/Source/Utility/dsp.h **** */
   8:DaisySP/Source/Utility/dsp.h **** 
   9:DaisySP/Source/Utility/dsp.h **** /** Helpful defines, functions, and other utilities for use in/with daisysp modules.
  10:DaisySP/Source/Utility/dsp.h **** */
  11:DaisySP/Source/Utility/dsp.h **** #pragma once
  12:DaisySP/Source/Utility/dsp.h **** #ifndef DSY_CORE_DSP
  13:DaisySP/Source/Utility/dsp.h **** #define DSY_CORE_DSP
  14:DaisySP/Source/Utility/dsp.h **** #include <cassert>
  15:DaisySP/Source/Utility/dsp.h **** #include <cstdint>
  16:DaisySP/Source/Utility/dsp.h **** #include <random>
  17:DaisySP/Source/Utility/dsp.h **** #include <cmath>
  18:DaisySP/Source/Utility/dsp.h **** 
  19:DaisySP/Source/Utility/dsp.h **** /** PIs
  20:DaisySP/Source/Utility/dsp.h **** */
  21:DaisySP/Source/Utility/dsp.h **** #define PI_F 3.1415927410125732421875f
  22:DaisySP/Source/Utility/dsp.h **** #define TWOPI_F (2.0f * PI_F)
  23:DaisySP/Source/Utility/dsp.h **** #define HALFPI_F (PI_F * 0.5f)
  24:DaisySP/Source/Utility/dsp.h **** #define DSY_MIN(in, mn) (in < mn ? in : mn)
  25:DaisySP/Source/Utility/dsp.h **** #define DSY_MAX(in, mx) (in > mx ? in : mx)
  26:DaisySP/Source/Utility/dsp.h **** #define DSY_CLAMP(in, mn, mx) (DSY_MIN(DSY_MAX(in, mn), mx))
  27:DaisySP/Source/Utility/dsp.h **** #define DSY_COUNTOF(_arr) (sizeof(_arr) / sizeof(_arr[0]))
  28:DaisySP/Source/Utility/dsp.h **** 
  29:DaisySP/Source/Utility/dsp.h **** namespace daisysp
  30:DaisySP/Source/Utility/dsp.h **** {
  31:DaisySP/Source/Utility/dsp.h **** //Avoids division for random floats. e.g. rand() * kRandFrac
  32:DaisySP/Source/Utility/dsp.h **** static constexpr float kRandFrac = 1.f / (float)RAND_MAX;
  33:DaisySP/Source/Utility/dsp.h **** 
  34:DaisySP/Source/Utility/dsp.h **** //Convert from semitones to other units. e.g. 2 ^ (kOneTwelfth * x)
  35:DaisySP/Source/Utility/dsp.h **** static constexpr float kOneTwelfth = 1.f / 12.f;
  36:DaisySP/Source/Utility/dsp.h **** 
  37:DaisySP/Source/Utility/dsp.h **** /** efficient floating point min/max
  38:DaisySP/Source/Utility/dsp.h **** c/o stephen mccaul
  39:DaisySP/Source/Utility/dsp.h **** */
  40:DaisySP/Source/Utility/dsp.h **** inline float fmax(float a, float b)
ARM GAS  /tmp/cc8O3cyV.s 			page 31


  41:DaisySP/Source/Utility/dsp.h **** {
  42:DaisySP/Source/Utility/dsp.h ****     float r;
  43:DaisySP/Source/Utility/dsp.h **** #ifdef __arm__
  44:DaisySP/Source/Utility/dsp.h ****     asm("vmaxnm.f32 %[d], %[n], %[m]" : [d] "=t"(r) : [n] "t"(a), [m] "t"(b) :);
  45:DaisySP/Source/Utility/dsp.h **** #else
  46:DaisySP/Source/Utility/dsp.h ****     r = (a > b) ? a : b;
  47:DaisySP/Source/Utility/dsp.h **** #endif // __arm__
  48:DaisySP/Source/Utility/dsp.h ****     return r;
  49:DaisySP/Source/Utility/dsp.h **** }
  50:DaisySP/Source/Utility/dsp.h **** 
  51:DaisySP/Source/Utility/dsp.h **** inline float fmin(float a, float b)
  52:DaisySP/Source/Utility/dsp.h **** {
  53:DaisySP/Source/Utility/dsp.h ****     float r;
  54:DaisySP/Source/Utility/dsp.h **** #ifdef __arm__
  55:DaisySP/Source/Utility/dsp.h ****     asm("vminnm.f32 %[d], %[n], %[m]" : [d] "=t"(r) : [n] "t"(a), [m] "t"(b) :);
 1025              		.loc 5 55 5 view .LVU312
 1026 0094 F7EE006A 		vmov.f32	s13, #1.0e+0
 1027              	.LBE212:
 1028              	.LBE211:
 1029              	.LBB214:
 1030              	.LBB215:
  44:DaisySP/Source/Utility/dsp.h **** #else
 1031              		.loc 5 44 5 view .LVU313
 1032 0098 9FED536A 		vldr.32	s12, .L98
 1033              	.LBE215:
 1034              	.LBE214:
 1035              	.LBE210:
 178:processing.cpp ****             
 1036              		.loc 1 178 13 discriminator 1 view .LVU314
 1037 009c FF2A     		cmp	r2, #255
 1038 009e D4F8E020 		ldr	r2, [r4, #224]
 180:processing.cpp ****             params[edit_param_target] = fclamp(params[edit_param_target], 0.0f, 1.0f);
 1039              		.loc 1 180 42 view .LVU315
 1040 00a2 F8EEE77A 		vcvt.f32.s32	s15, s15
 1041 00a6 04EB8203 		add	r3, r4, r2, lsl #2
 1042              	.LVL57:
 177:processing.cpp ****             if (hw.encoder1.Pressed()) scale = 0.05f; // Faster if pressed while turning
 1043              		.loc 1 177 19 view .LVU316
 1044 00aa 14BF     		ite	ne
 1045 00ac DFED4F5A 		vldrne.32	s11, .L98+4
 178:processing.cpp ****             
 1046              		.loc 1 178 46 discriminator 1 view .LVU317
 1047 00b0 DFED4F5A 		vldreq.32	s11, .L98+8
 1048              	.LVL58:
 180:processing.cpp ****             params[edit_param_target] = fclamp(params[edit_param_target], 0.0f, 1.0f);
 1049              		.loc 1 180 13 is_stmt 1 view .LVU318
 180:processing.cpp ****             params[edit_param_target] = fclamp(params[edit_param_target], 0.0f, 1.0f);
 1050              		.loc 1 180 39 is_stmt 0 view .LVU319
 1051 00b4 93ED067A 		vldr.32	s14, [r3, #24]
 1052 00b8 A7EEA57A 		vfma.f32	s14, s15, s11
 181:processing.cpp ****             effective_params[edit_param_target] = params[edit_param_target];
 1053              		.loc 1 181 13 is_stmt 1 view .LVU320
 1054              	.LVL59:
 1055              	.LBB219:
 1056              	.LBI210:
  56:DaisySP/Source/Utility/dsp.h **** #else
  57:DaisySP/Source/Utility/dsp.h ****     r = (a < b) ? a : b;
ARM GAS  /tmp/cc8O3cyV.s 			page 32


  58:DaisySP/Source/Utility/dsp.h **** #endif // __arm__
  59:DaisySP/Source/Utility/dsp.h ****     return r;
  60:DaisySP/Source/Utility/dsp.h **** }
  61:DaisySP/Source/Utility/dsp.h **** 
  62:DaisySP/Source/Utility/dsp.h **** /** quick fp clamp
  63:DaisySP/Source/Utility/dsp.h **** */
  64:DaisySP/Source/Utility/dsp.h **** inline float fclamp(float in, float min, float max)
 1057              		.loc 5 64 14 view .LVU321
  65:DaisySP/Source/Utility/dsp.h **** {
  66:DaisySP/Source/Utility/dsp.h ****     return fmin(fmax(in, min), max);
 1058              		.loc 5 66 5 view .LVU322
 1059              	.LBB217:
 1060              	.LBI214:
  40:DaisySP/Source/Utility/dsp.h **** {
 1061              		.loc 5 40 14 view .LVU323
 1062              	.LBB216:
  42:DaisySP/Source/Utility/dsp.h **** #ifdef __arm__
 1063              		.loc 5 42 5 view .LVU324
  44:DaisySP/Source/Utility/dsp.h **** #else
 1064              		.loc 5 44 5 view .LVU325
 1065              		.syntax unified
 1066              	@ 44 "DaisySP/Source/Utility/dsp.h" 1
 1067 00bc C7FE067A 		vmaxnm.f32 s15, s14, s12
 1068              	@ 0 "" 2
 1069              	.LVL60:
  48:DaisySP/Source/Utility/dsp.h **** }
 1070              		.loc 5 48 5 view .LVU326
  48:DaisySP/Source/Utility/dsp.h **** }
 1071              		.loc 5 48 5 is_stmt 0 view .LVU327
 1072              		.thumb
 1073              		.syntax unified
 1074              	.LBE216:
 1075              	.LBE217:
 1076              	.LBB218:
 1077              	.LBI211:
  51:DaisySP/Source/Utility/dsp.h **** {
 1078              		.loc 5 51 14 is_stmt 1 view .LVU328
 1079              	.LBB213:
  53:DaisySP/Source/Utility/dsp.h **** #ifdef __arm__
 1080              		.loc 5 53 5 view .LVU329
  55:DaisySP/Source/Utility/dsp.h **** #else
 1081              		.loc 5 55 5 view .LVU330
 1082              		.syntax unified
 1083              	@ 55 "DaisySP/Source/Utility/dsp.h" 1
 1084 00c0 C7FEE67A 		vminnm.f32 s15, s15, s13
 1085              	@ 0 "" 2
 1086              	.LVL61:
  59:DaisySP/Source/Utility/dsp.h **** }
 1087              		.loc 5 59 5 view .LVU331
  59:DaisySP/Source/Utility/dsp.h **** }
 1088              		.loc 5 59 5 is_stmt 0 view .LVU332
 1089              		.thumb
 1090              		.syntax unified
 1091              	.LBE213:
 1092              	.LBE218:
 1093              	.LBE219:
 181:processing.cpp ****             effective_params[edit_param_target] = params[edit_param_target];
ARM GAS  /tmp/cc8O3cyV.s 			page 33


 1094              		.loc 1 181 39 discriminator 1 view .LVU333
 1095 00c4 C3ED067A 		vstr.32	s15, [r3, #24]
 182:processing.cpp ****         }
 1096              		.loc 1 182 13 is_stmt 1 view .LVU334
 182:processing.cpp ****         }
 1097              		.loc 1 182 49 is_stmt 0 view .LVU335
 1098 00c8 C3ED1E7A 		vstr.32	s15, [r3, #120]
 1099              	.LBE206:
 1100 00cc CBE7     		b	.L53
 1101              	.LVL62:
 1102              	.L38:
 182:processing.cpp ****         }
 1103              		.loc 1 182 49 view .LVU336
 1104              	.LBE205:
 1105              	.LBE204:
 1106              	.LBE226:
 1107              	.LBB227:
 128:processing.cpp ****         // Only trigger click if the hold action was NOT triggered
 1108              		.loc 1 128 5 discriminator 1 view .LVU337
 1109 00ce 802D     		cmp	r5, #128
 1110 00d0 A2D1     		bne	.L41
 1111              	.LBE227:
 130:processing.cpp ****             // --- SHORT CLICK: Toggle Edit Mode ---
 1112              		.loc 1 130 9 is_stmt 1 view .LVU338
 1113              	.LBB228:
 1114              	.LBB173:
 1115 00d2 90F8E430 		ldrb	r3, [r0, #228]	@ zero_extendqisi2
 1116 00d6 002B     		cmp	r3, #0
 1117 00d8 9ED1     		bne	.L41
 1118              	.LBE173:
 1119              	.LBE228:
 132:processing.cpp ****                  const MenuItem &item = current_menu_items[selected_item_idx];
 1120              		.loc 1 132 13 view .LVU339
 1121              	.LBB229:
 1122              	.LBB178:
 1123              	.LBB174:
 132:processing.cpp ****                  const MenuItem &item = current_menu_items[selected_item_idx];
 1124              		.loc 1 132 17 is_stmt 0 view .LVU340
 1125 00da 94F8C420 		ldrb	r2, [r4, #196]	@ zero_extendqisi2
 132:processing.cpp ****                  const MenuItem &item = current_menu_items[selected_item_idx];
 1126              		.loc 1 132 13 view .LVU341
 1127 00de 002A     		cmp	r2, #0
 1128 00e0 72D1     		bne	.L95
 1129              	.LVL63:
 1130              	.L46:
 1131              	.LBB175:
 133:processing.cpp ****                  if (item.type == TYPE_PARAM) {
 1132              		.loc 1 133 18 is_stmt 1 view .LVU342
 133:processing.cpp ****                  if (item.type == TYPE_PARAM) {
 1133              		.loc 1 133 77 is_stmt 0 view .LVU343
 1134 00e2 D4F8DC30 		ldr	r3, [r4, #220]
 133:processing.cpp ****                  if (item.type == TYPE_PARAM) {
 1135              		.loc 1 133 34 view .LVU344
 1136 00e6 D4F8D420 		ldr	r2, [r4, #212]
 133:processing.cpp ****                  if (item.type == TYPE_PARAM) {
 1137              		.loc 1 133 77 view .LVU345
 1138 00ea 03EB4303 		add	r3, r3, r3, lsl #1
ARM GAS  /tmp/cc8O3cyV.s 			page 34


 133:processing.cpp ****                  if (item.type == TYPE_PARAM) {
 1139              		.loc 1 133 34 view .LVU346
 1140 00ee 02EB8303 		add	r3, r2, r3, lsl #2
 1141              	.LVL64:
 134:processing.cpp ****                      edit_param_target = item.param_id;
 1142              		.loc 1 134 18 is_stmt 1 view .LVU347
 1143 00f2 1A79     		ldrb	r2, [r3, #4]	@ zero_extendqisi2
 1144 00f4 2AB9     		cbnz	r2, .L47
 135:processing.cpp ****                      ui_state = STATE_PARAM_EDIT;
 1145              		.loc 1 135 22 view .LVU348
 135:processing.cpp ****                      ui_state = STATE_PARAM_EDIT;
 1146              		.loc 1 135 40 is_stmt 0 view .LVU349
 1147 00f6 9A68     		ldr	r2, [r3, #8]
 136:processing.cpp ****                  }
 1148              		.loc 1 136 31 view .LVU350
 1149 00f8 0123     		movs	r3, #1
 1150              	.LVL65:
 135:processing.cpp ****                      ui_state = STATE_PARAM_EDIT;
 1151              		.loc 1 135 40 view .LVU351
 1152 00fa C4F8E020 		str	r2, [r4, #224]
 136:processing.cpp ****                  }
 1153              		.loc 1 136 22 is_stmt 1 view .LVU352
 136:processing.cpp ****                  }
 1154              		.loc 1 136 31 is_stmt 0 view .LVU353
 1155 00fe 84F8C430 		strb	r3, [r4, #196]
 1156              	.L47:
 1157              	.LBE175:
 1158              	.LBE174:
 1159              	.LBE178:
 1160              	.LBE229:
 145:processing.cpp ****         enc1_hold_time = 0.0f;
 1161              		.loc 1 145 5 is_stmt 1 view .LVU354
 1162 0102 FF2D     		cmp	r5, #255
 1163 0104 8ED0     		beq	.L39
 1164 0106 87E7     		b	.L41
 1165              	.LVL66:
 1166              	.L49:
 162:processing.cpp ****     
 1167              		.loc 1 162 5 view .LVU355
 1168              	.LBB230:
  33:libDaisy/src/hid/encoder.h **** 
 1169              		.loc 4 33 20 view .LVU356
 1170              	.LBB199:
  33:libDaisy/src/hid/encoder.h **** 
 1171              		.loc 4 33 40 view .LVU357
  33:libDaisy/src/hid/encoder.h **** 
 1172              		.loc 4 33 56 is_stmt 0 view .LVU358
 1173 0108 002B     		cmp	r3, #0
 1174 010a ACD0     		beq	.L53
  33:libDaisy/src/hid/encoder.h **** 
 1175              		.loc 4 33 56 discriminator 1 view .LVU359
 1176 010c D6F8CC30 		ldr	r3, [r6, #204]
 1177              	.LVL67:
  33:libDaisy/src/hid/encoder.h **** 
 1178              		.loc 4 33 56 discriminator 1 view .LVU360
 1179              	.LBE199:
 1180              	.LBE230:
ARM GAS  /tmp/cc8O3cyV.s 			page 35


 164:processing.cpp ****     {
 1181              		.loc 1 164 5 is_stmt 1 view .LVU361
 173:processing.cpp ****     {
 1182              		.loc 1 173 10 view .LVU362
 176:processing.cpp ****             float scale = 0.01f;
 1183              		.loc 1 176 9 view .LVU363
 1184              	.LBB231:
 1185              	.LBB221:
 1186              	.LBB220:
 1187 0110 002B     		cmp	r3, #0
 1188 0112 B9D1     		bne	.L96
 1189 0114 A7E7     		b	.L53
 1190              	.LVL68:
 1191              	.L37:
 176:processing.cpp ****             float scale = 0.01f;
 1192              		.loc 1 176 9 is_stmt 0 view .LVU364
 1193              	.LBE220:
 1194              	.LBE221:
 1195              	.LBE231:
 118:processing.cpp **** 
 1196              		.loc 1 118 9 is_stmt 1 view .LVU365
 118:processing.cpp **** 
 1197              		.loc 1 118 59 is_stmt 0 view .LVU366
 1198 0116 0846     		mov	r0, r1
 1199              	.LVL69:
 118:processing.cpp **** 
 1200              		.loc 1 118 59 view .LVU367
 1201 0118 FFF7FEFF 		bl	_ZNK5daisy9DaisySeed17AudioCallbackRateEv
 1202              	.LVL70:
 118:processing.cpp **** 
 1203              		.loc 1 118 32 discriminator 1 view .LVU368
 1204 011c B7EE006A 		vmov.f32	s12, #1.0e+0
 118:processing.cpp **** 
 1205              		.loc 1 118 24 discriminator 1 view .LVU369
 1206 0120 D4ED3A6A 		vldr.32	s13, [r4, #232]
 121:processing.cpp ****             SetAdvancedMode(!advanced_mode);
 1207              		.loc 1 121 9 view .LVU370
 1208 0124 9FED337A 		vldr.32	s14, .L98+12
 118:processing.cpp **** 
 1209              		.loc 1 118 32 discriminator 1 view .LVU371
 1210 0128 C6EE007A 		vdiv.f32	s15, s12, s0
 118:processing.cpp **** 
 1211              		.loc 1 118 24 discriminator 1 view .LVU372
 1212 012c 77EEA67A 		vadd.f32	s15, s15, s13
 121:processing.cpp ****             SetAdvancedMode(!advanced_mode);
 1213              		.loc 1 121 9 view .LVU373
 1214 0130 F4EEC77A 		vcmpe.f32	s15, s14
 118:processing.cpp **** 
 1215              		.loc 1 118 24 discriminator 1 view .LVU374
 1216 0134 C4ED3A7A 		vstr.32	s15, [r4, #232]
 121:processing.cpp ****             SetAdvancedMode(!advanced_mode);
 1217              		.loc 1 121 9 is_stmt 1 view .LVU375
 1218 0138 F1EE10FA 		vmrs	APSR_nzcv, FPSCR
 1219 013c 18DC     		bgt	.L97
 128:processing.cpp ****         // Only trigger click if the hold action was NOT triggered
 1220              		.loc 1 128 5 view .LVU376
 1221              	.LVL71:
ARM GAS  /tmp/cc8O3cyV.s 			page 36


 1222              	.LBB232:
 1223              	.LBB179:
  39:libDaisy/src/hid/encoder.h **** 
 1224              		.loc 4 39 17 view .LVU377
  39:libDaisy/src/hid/encoder.h **** 
 1225              		.loc 4 39 39 view .LVU378
 1226              	.LBB171:
  68:libDaisy/src/hid/switch.h ****     {
 1227              		.loc 3 68 17 view .LVU379
 1228              	.LBB169:
  70:libDaisy/src/hid/switch.h ****     }
 1229              		.loc 3 70 9 view .LVU380
  70:libDaisy/src/hid/switch.h ****     }
 1230              		.loc 3 70 25 is_stmt 0 view .LVU381
 1231 013e 96F88030 		ldrb	r3, [r6, #128]	@ zero_extendqisi2
 1232 0142 002B     		cmp	r3, #0
 1233 0144 3FF46EAF 		beq	.L39
 1234              	.LVL72:
  70:libDaisy/src/hid/switch.h ****     }
 1235              		.loc 3 70 25 view .LVU382
 1236              	.LBE169:
 1237              	.LBE171:
 1238              	.LBE179:
 128:processing.cpp ****         // Only trigger click if the hold action was NOT triggered
 1239              		.loc 1 128 5 discriminator 1 view .LVU383
 1240 0148 96F89830 		ldrb	r3, [r6, #152]	@ zero_extendqisi2
 1241 014c 802B     		cmp	r3, #128
 1242 014e 7FF469AF 		bne	.L39
 1243              	.LBE232:
 130:processing.cpp ****             // --- SHORT CLICK: Toggle Edit Mode ---
 1244              		.loc 1 130 9 is_stmt 1 view .LVU384
 1245              	.LBB233:
 1246              	.LBB180:
 1247 0152 94F8E430 		ldrb	r3, [r4, #228]	@ zero_extendqisi2
 1248 0156 002B     		cmp	r3, #0
 1249 0158 7FF464AF 		bne	.L39
 1250              	.LBE180:
 1251              	.LBE233:
 132:processing.cpp ****                  const MenuItem &item = current_menu_items[selected_item_idx];
 1252              		.loc 1 132 13 view .LVU385
 1253              	.LBB234:
 1254              	.LBB181:
 1255              	.LBB176:
 132:processing.cpp ****                  const MenuItem &item = current_menu_items[selected_item_idx];
 1256              		.loc 1 132 17 is_stmt 0 view .LVU386
 1257 015c 94F8C420 		ldrb	r2, [r4, #196]	@ zero_extendqisi2
 132:processing.cpp ****                  const MenuItem &item = current_menu_items[selected_item_idx];
 1258              		.loc 1 132 13 view .LVU387
 1259 0160 002A     		cmp	r2, #0
 1260 0162 BED0     		beq	.L46
 138:processing.cpp ****                 ui_state = STATE_MENU_NAV;
 1261              		.loc 1 138 20 is_stmt 1 view .LVU388
 1262 0164 012A     		cmp	r2, #1
 1263 0166 7FF45DAF 		bne	.L39
 139:processing.cpp ****             }
 1264              		.loc 1 139 17 view .LVU389
 139:processing.cpp ****             }
ARM GAS  /tmp/cc8O3cyV.s 			page 37


 1265              		.loc 1 139 26 is_stmt 0 view .LVU390
 1266 016a 84F8C430 		strb	r3, [r4, #196]
 1267              	.LBE176:
 1268              	.LBE181:
 1269              	.LBE234:
 145:processing.cpp ****         enc1_hold_time = 0.0f;
 1270              		.loc 1 145 5 is_stmt 1 view .LVU391
 1271 016e 59E7     		b	.L39
 1272              	.L97:
 121:processing.cpp ****             SetAdvancedMode(!advanced_mode);
 1273              		.loc 1 121 35 is_stmt 0 discriminator 1 view .LVU392
 1274 0170 94F8E430 		ldrb	r3, [r4, #228]	@ zero_extendqisi2
 1275 0174 002B     		cmp	r3, #0
 1276 0176 7FF455AF 		bne	.L39
 122:processing.cpp ****             enc1_holding = true; // Mark as handled so we don't trigger again or trigger click on r
 1277              		.loc 1 122 13 is_stmt 1 view .LVU393
 122:processing.cpp ****             enc1_holding = true; // Mark as handled so we don't trigger again or trigger click on r
 1278              		.loc 1 122 28 is_stmt 0 view .LVU394
 1279 017a 94F8CC10 		ldrb	r1, [r4, #204]	@ zero_extendqisi2
 1280 017e 2046     		mov	r0, r4
 1281 0180 81F00101 		eor	r1, r1, #1
 1282 0184 FFF7FEFF 		bl	_ZN10Processing15SetAdvancedModeEb
 1283              	.LVL73:
 123:processing.cpp ****         }
 1284              		.loc 1 123 13 is_stmt 1 view .LVU395
 123:processing.cpp ****         }
 1285              		.loc 1 123 26 is_stmt 0 view .LVU396
 1286 0188 0123     		movs	r3, #1
 1287 018a 84F8E430 		strb	r3, [r4, #228]
 128:processing.cpp ****         // Only trigger click if the hold action was NOT triggered
 1288              		.loc 1 128 5 is_stmt 1 view .LVU397
 1289              	.LVL74:
 1290              	.LBB235:
 1291              	.LBB182:
  39:libDaisy/src/hid/encoder.h **** 
 1292              		.loc 4 39 17 view .LVU398
  39:libDaisy/src/hid/encoder.h **** 
 1293              		.loc 4 39 39 view .LVU399
 1294              	.LBB172:
  68:libDaisy/src/hid/switch.h ****     {
 1295              		.loc 3 68 17 view .LVU400
 1296              	.LBB170:
  70:libDaisy/src/hid/switch.h ****     }
 1297              		.loc 3 70 9 view .LVU401
  70:libDaisy/src/hid/switch.h ****     }
 1298              		.loc 3 70 9 is_stmt 0 view .LVU402
 1299 018e 49E7     		b	.L39
 1300              	.LVL75:
 1301              	.L94:
  70:libDaisy/src/hid/switch.h ****     }
 1302              		.loc 3 70 9 view .LVU403
 1303              	.LBE170:
 1304              	.LBE172:
 1305              	.LBE182:
 1306              	.LBE235:
 1307              	.LBB236:
 1308              	.LBB192:
ARM GAS  /tmp/cc8O3cyV.s 			page 38


 156:processing.cpp ****         }
 1309              		.loc 1 156 13 is_stmt 1 view .LVU404
 156:processing.cpp ****         }
 1310              		.loc 1 156 20 is_stmt 0 view .LVU405
 1311 0190 D4F8C800 		ldr	r0, [r4, #200]
 1312              	.LVL76:
 1313              	.LBB188:
 1314              	.LBI188:
  83:processing.cpp ****     if (page_idx < 0) page_idx = kNumPages - 1;
 1315              		.loc 1 83 6 is_stmt 1 view .LVU406
 1316              	.LBB189:
  84:processing.cpp ****     if (page_idx >= kNumPages) page_idx = 0;
 1317              		.loc 1 84 5 view .LVU407
 1318 0194 0918     		adds	r1, r1, r0
 1319              	.LVL77:
  84:processing.cpp ****     if (page_idx >= kNumPages) page_idx = 0;
 1320              		.loc 1 84 5 is_stmt 0 view .LVU408
 1321 0196 1DD4     		bmi	.L62
  85:processing.cpp ****     
 1322              		.loc 1 85 5 is_stmt 1 view .LVU409
 1323 0198 0229     		cmp	r1, #2
 1324 019a 20DC     		bgt	.L63
  88:processing.cpp ****     current_menu_items = kPages[current_page_idx].items;
 1325              		.loc 1 88 50 is_stmt 0 view .LVU410
 1326 019c 164A     		ldr	r2, .L98+16
 1327 019e 01EB4105 		add	r5, r1, r1, lsl #1
 1328              	.LVL78:
  88:processing.cpp ****     current_menu_items = kPages[current_page_idx].items;
 1329              		.loc 1 88 50 view .LVU411
 1330 01a2 02EB8500 		add	r0, r2, r5, lsl #2
 1331 01a6 52F82550 		ldr	r5, [r2, r5, lsl #2]
  90:processing.cpp ****     selected_item_idx = 0;
 1332              		.loc 1 90 50 view .LVU412
 1333 01aa D0E90120 		ldrd	r2, r0, [r0, #4]
 1334              	.LVL79:
 1335              	.L51:
  87:processing.cpp ****     current_page_name = kPages[current_page_idx].name;
 1336              		.loc 1 87 5 is_stmt 1 view .LVU413
  89:processing.cpp ****     current_menu_size = kPages[current_page_idx].num_items;
 1337              		.loc 1 89 24 is_stmt 0 view .LVU414
 1338 01ae C4E93452 		strd	r5, r2, [r4, #208]
  91:processing.cpp ****     ui_state = STATE_MENU_NAV;
 1339              		.loc 1 91 23 view .LVU415
 1340 01b2 0022     		movs	r2, #0
  87:processing.cpp ****     current_page_name = kPages[current_page_idx].name;
 1341              		.loc 1 87 22 view .LVU416
 1342 01b4 C4F8C810 		str	r1, [r4, #200]
  88:processing.cpp ****     current_menu_items = kPages[current_page_idx].items;
 1343              		.loc 1 88 5 is_stmt 1 view .LVU417
  90:processing.cpp ****     selected_item_idx = 0;
 1344              		.loc 1 90 5 view .LVU418
  91:processing.cpp ****     ui_state = STATE_MENU_NAV;
 1345              		.loc 1 91 23 is_stmt 0 view .LVU419
 1346 01b8 C4E93602 		strd	r0, r2, [r4, #216]
  92:processing.cpp **** }
 1347              		.loc 1 92 5 is_stmt 1 view .LVU420
  92:processing.cpp **** }
ARM GAS  /tmp/cc8O3cyV.s 			page 39


 1348              		.loc 1 92 14 is_stmt 0 view .LVU421
 1349 01bc 84F8C420 		strb	r2, [r4, #196]
 1350              	.LVL80:
  92:processing.cpp **** }
 1351              		.loc 1 92 14 view .LVU422
 1352              	.LBE189:
 1353              	.LBE188:
 1354              	.LBE192:
 1355              	.LBE236:
 162:processing.cpp ****     
 1356              		.loc 1 162 5 is_stmt 1 view .LVU423
 1357              	.LBB237:
  33:libDaisy/src/hid/encoder.h **** 
 1358              		.loc 4 33 20 view .LVU424
 1359              	.LBB200:
  33:libDaisy/src/hid/encoder.h **** 
 1360              		.loc 4 33 40 view .LVU425
  33:libDaisy/src/hid/encoder.h **** 
 1361              		.loc 4 33 56 is_stmt 0 view .LVU426
 1362 01c0 002B     		cmp	r3, #0
 1363 01c2 7FF441AF 		bne	.L59
 1364 01c6 4EE7     		b	.L53
 1365              	.LVL81:
 1366              	.L95:
  33:libDaisy/src/hid/encoder.h **** 
 1367              		.loc 4 33 56 view .LVU427
 1368              	.LBE200:
 1369              	.LBE237:
 1370              	.LBB238:
 1371              	.LBB183:
 1372              	.LBB177:
 138:processing.cpp ****                 ui_state = STATE_MENU_NAV;
 1373              		.loc 1 138 20 is_stmt 1 view .LVU428
 1374 01c8 012A     		cmp	r2, #1
 1375 01ca 7FF425AF 		bne	.L41
 139:processing.cpp ****             }
 1376              		.loc 1 139 17 view .LVU429
 139:processing.cpp ****             }
 1377              		.loc 1 139 26 is_stmt 0 view .LVU430
 1378 01ce 84F8C430 		strb	r3, [r4, #196]
 1379              	.LBE177:
 1380              	.LBE183:
 1381              	.LBE238:
 145:processing.cpp ****         enc1_hold_time = 0.0f;
 1382              		.loc 1 145 5 is_stmt 1 view .LVU431
 1383 01d2 21E7     		b	.L41
 1384              	.LVL82:
 1385              	.L62:
 1386              	.LBB239:
 1387              	.LBB193:
 1388              	.LBB191:
 1389              	.LBB190:
 145:processing.cpp ****         enc1_hold_time = 0.0f;
 1390              		.loc 1 145 5 is_stmt 0 view .LVU432
 1391 01d4 0220     		movs	r0, #2
 1392 01d6 094A     		ldr	r2, .L98+20
 1393 01d8 094D     		ldr	r5, .L98+24
ARM GAS  /tmp/cc8O3cyV.s 			page 40


 1394              	.LVL83:
  84:processing.cpp ****     if (page_idx >= kNumPages) page_idx = 0;
 1395              		.loc 1 84 32 discriminator 1 view .LVU433
 1396 01da 0146     		mov	r1, r0
 1397              	.LVL84:
  84:processing.cpp ****     if (page_idx >= kNumPages) page_idx = 0;
 1398              		.loc 1 84 32 discriminator 1 view .LVU434
 1399 01dc E7E7     		b	.L51
 1400              	.LVL85:
 1401              	.L63:
  85:processing.cpp ****     
 1402              		.loc 1 85 41 discriminator 1 view .LVU435
 1403 01de 1146     		mov	r1, r2
 1404              	.LVL86:
  85:processing.cpp ****     
 1405              		.loc 1 85 41 discriminator 1 view .LVU436
 1406 01e0 0420     		movs	r0, #4
 1407              	.LVL87:
  85:processing.cpp ****     
 1408              		.loc 1 85 41 discriminator 1 view .LVU437
 1409 01e2 084A     		ldr	r2, .L98+28
 1410 01e4 084D     		ldr	r5, .L98+32
 1411              	.LVL88:
  85:processing.cpp ****     
 1412              		.loc 1 85 41 discriminator 1 view .LVU438
 1413 01e6 E2E7     		b	.L51
 1414              	.L99:
 1415              		.align	2
 1416              	.L98:
 1417 01e8 00000000 		.word	0
 1418 01ec 0AD7233C 		.word	1008981770
 1419 01f0 CDCC4C3D 		.word	1028443341
 1420 01f4 9A99193F 		.word	1058642330
 1421 01f8 00000000 		.word	_ZL6kPages
 1422 01fc 00000000 		.word	_ZL10kItemsTime
 1423 0200 04000000 		.word	.LC1
 1424 0204 00000000 		.word	_ZL9kItemsMix
 1425 0208 00000000 		.word	.LC0
 1426              	.LBE190:
 1427              	.LBE191:
 1428              	.LBE193:
 1429              	.LBE239:
 1430              		.cfi_endproc
 1431              	.LFE4901:
 1433              		.section	.text._ZN10Processing9GetSampleERfS0_ff,"ax",%progbits
 1434              		.align	1
 1435              		.p2align 2,,3
 1436              		.global	_ZN10Processing9GetSampleERfS0_ff
 1437              		.syntax unified
 1438              		.thumb
 1439              		.thumb_func
 1441              	_ZN10Processing9GetSampleERfS0_ff:
 1442              	.LVL89:
 1443              	.LFB4904:
 209:processing.cpp **** 
 210:processing.cpp **** void Processing::GetSample(float &outl, float &outr, float inl, float inr) {
 1444              		.loc 1 210 76 is_stmt 1 view -0
ARM GAS  /tmp/cc8O3cyV.s 			page 41


 1445              		.cfi_startproc
 1446              		@ args = 0, pretend = 0, frame = 0
 1447              		@ frame_needed = 0, uses_anonymous_args = 0
 211:processing.cpp ****     float pre_gain = effective_params[PARAM_PRE_GAIN] * 2.0f; 
 1448              		.loc 1 211 5 view .LVU440
 1449              		.loc 1 211 11 is_stmt 0 view .LVU441
 1450 0000 90ED1E7A 		vldr.32	s14, [r0, #120]
 212:processing.cpp ****     float fbk = effective_params[PARAM_FEEDBACK];
 213:processing.cpp ****     float mix = effective_params[PARAM_MIX]; 
 214:processing.cpp ****     float post_gain = effective_params[PARAM_POST_GAIN] * 2.0f;
 215:processing.cpp ****     float stereo = effective_params[PARAM_STEREO]; float spray = effective_params[PARAM_SPRAY];
 216:processing.cpp ****     float inl_g = inl * pre_gain; float inr_g = inr * pre_gain;
 217:processing.cpp ****     float wet_in = (inl_g + inr_g) * 0.5f; 
 218:processing.cpp ****     
 219:processing.cpp ****     float old_samp = buffer[write_pos];
 220:processing.cpp ****     buffer[write_pos] = fclamp(wet_in + (old_samp * fbk), -1.0f, 1.0f);
 1451              		.loc 1 220 31 view .LVU442
 1452 0004 F6EE005A 		vmov.f32	s11, #5.0e-1
 1453              		.loc 1 220 51 view .LVU443
 1454 0008 D0ED1F7A 		vldr.32	s15, [r0, #124]
 1455              	.LBB272:
 1456              	.LBB273:
 1457              	.LBB274:
  44:DaisySP/Source/Utility/dsp.h **** #else
 1458              		.loc 5 44 5 view .LVU444
 1459 000c BFEE006A 		vmov.f32	s12, #-1.0e+0
 1460              	.LBE274:
 1461              	.LBE273:
 1462              	.LBE272:
 211:processing.cpp ****     float pre_gain = effective_params[PARAM_PRE_GAIN] * 2.0f; 
 1463              		.loc 1 211 11 view .LVU445
 1464 0010 37EE077A 		vadd.f32	s14, s14, s14
 1465              	.LVL90:
 212:processing.cpp ****     float fbk = effective_params[PARAM_FEEDBACK];
 1466              		.loc 1 212 5 is_stmt 1 view .LVU446
 213:processing.cpp ****     float post_gain = effective_params[PARAM_POST_GAIN] * 2.0f;
 1467              		.loc 1 213 5 view .LVU447
 214:processing.cpp ****     float stereo = effective_params[PARAM_STEREO]; float spray = effective_params[PARAM_SPRAY];
 1468              		.loc 1 214 11 is_stmt 0 view .LVU448
 1469 0014 90ED213A 		vldr.32	s6, [r0, #132]
 1470              	.LBB281:
 221:processing.cpp ****     
 222:processing.cpp ****     if(grain_trig_counter_l == 0) {
 1471              		.loc 1 222 8 view .LVU449
 1472 0018 8368     		ldr	r3, [r0, #8]
 1473              	.LBE281:
 1474              	.LBB330:
 1475              	.LBB276:
 1476              	.LBB277:
  55:DaisySP/Source/Utility/dsp.h **** #else
 1477              		.loc 5 55 5 view .LVU450
 1478 001a F7EE006A 		vmov.f32	s13, #1.0e+0
 1479              	.LBE277:
 1480              	.LBE276:
 1481              	.LBE330:
 213:processing.cpp ****     float post_gain = effective_params[PARAM_POST_GAIN] * 2.0f;
 1482              		.loc 1 213 11 view .LVU451
ARM GAS  /tmp/cc8O3cyV.s 			page 42


 1483 001e D0ED203A 		vldr.32	s7, [r0, #128]
 1484              	.LVL91:
 214:processing.cpp ****     float stereo = effective_params[PARAM_STEREO]; float spray = effective_params[PARAM_SPRAY];
 1485              		.loc 1 214 5 is_stmt 1 view .LVU452
 214:processing.cpp ****     float stereo = effective_params[PARAM_STEREO]; float spray = effective_params[PARAM_SPRAY];
 1486              		.loc 1 214 11 is_stmt 0 view .LVU453
 1487 0022 33EE033A 		vadd.f32	s6, s6, s6
 1488              	.LVL92:
 215:processing.cpp ****     float inl_g = inl * pre_gain; float inr_g = inr * pre_gain;
 1489              		.loc 1 215 5 is_stmt 1 view .LVU454
 216:processing.cpp ****     float wet_in = (inl_g + inr_g) * 0.5f; 
 1490              		.loc 1 216 11 is_stmt 0 view .LVU455
 1491 0026 27EE000A 		vmul.f32	s0, s14, s0
 1492              	.LVL93:
 215:processing.cpp ****     float inl_g = inl * pre_gain; float inr_g = inr * pre_gain;
 1493              		.loc 1 215 11 view .LVU456
 1494 002a D0ED282A 		vldr.32	s5, [r0, #160]
 1495              	.LVL94:
 215:processing.cpp ****     float inl_g = inl * pre_gain; float inr_g = inr * pre_gain;
 1496              		.loc 1 215 52 is_stmt 1 view .LVU457
 216:processing.cpp ****     float wet_in = (inl_g + inr_g) * 0.5f; 
 1497              		.loc 1 216 41 is_stmt 0 view .LVU458
 1498 002e 67EE200A 		vmul.f32	s1, s14, s1
 1499              	.LVL95:
 215:processing.cpp ****     float inl_g = inl * pre_gain; float inr_g = inr * pre_gain;
 1500              		.loc 1 215 58 view .LVU459
 1501 0032 90ED272A 		vldr.32	s4, [r0, #156]
 1502              	.LVL96:
 216:processing.cpp ****     float wet_in = (inl_g + inr_g) * 0.5f; 
 1503              		.loc 1 216 5 is_stmt 1 view .LVU460
 216:processing.cpp ****     float wet_in = (inl_g + inr_g) * 0.5f; 
 1504              		.loc 1 216 35 view .LVU461
 217:processing.cpp ****     
 1505              		.loc 1 217 5 view .LVU462
 219:processing.cpp ****     buffer[write_pos] = fclamp(wet_in + (old_samp * fbk), -1.0f, 1.0f);
 1506              		.loc 1 219 5 view .LVU463
 210:processing.cpp ****     float pre_gain = effective_params[PARAM_PRE_GAIN] * 2.0f; 
 1507              		.loc 1 210 76 is_stmt 0 view .LVU464
 1508 0036 2DE9F047 		push	{r4, r5, r6, r7, r8, r9, r10, lr}
 1509              		.cfi_def_cfa_offset 32
 1510              		.cfi_offset 4, -32
 1511              		.cfi_offset 5, -28
 1512              		.cfi_offset 6, -24
 1513              		.cfi_offset 7, -20
 1514              		.cfi_offset 8, -16
 1515              		.cfi_offset 9, -12
 1516              		.cfi_offset 10, -8
 1517              		.cfi_offset 14, -4
 219:processing.cpp ****     buffer[write_pos] = fclamp(wet_in + (old_samp * fbk), -1.0f, 1.0f);
 1518              		.loc 1 219 29 view .LVU465
 1519 003a 0568     		ldr	r5, [r0]
 1520              	.LVL97:
 220:processing.cpp ****     
 1521              		.loc 1 220 5 is_stmt 1 view .LVU466
 210:processing.cpp ****     float pre_gain = effective_params[PARAM_PRE_GAIN] * 2.0f; 
 1522              		.loc 1 210 76 is_stmt 0 view .LVU467
 1523 003c 9246     		mov	r10, r2
ARM GAS  /tmp/cc8O3cyV.s 			page 43


 219:processing.cpp ****     buffer[write_pos] = fclamp(wet_in + (old_samp * fbk), -1.0f, 1.0f);
 1524              		.loc 1 219 11 view .LVU468
 1525 003e B44C     		ldr	r4, .L179
 217:processing.cpp ****     
 1526              		.loc 1 217 27 view .LVU469
 1527 0040 30EE207A 		vadd.f32	s14, s0, s1
 1528              	.LVL98:
 210:processing.cpp ****     float pre_gain = effective_params[PARAM_PRE_GAIN] * 2.0f; 
 1529              		.loc 1 210 76 view .LVU470
 1530 0044 0F46     		mov	r7, r1
 219:processing.cpp ****     buffer[write_pos] = fclamp(wet_in + (old_samp * fbk), -1.0f, 1.0f);
 1531              		.loc 1 219 11 view .LVU471
 1532 0046 04EB8502 		add	r2, r4, r5, lsl #2
 1533              	.LVL99:
 220:processing.cpp ****     
 1534              		.loc 1 220 51 view .LVU472
 1535 004a 92ED005A 		vldr.32	s10, [r2]
 1536 004e 67EE857A 		vmul.f32	s15, s15, s10
 1537              	.LVL100:
 220:processing.cpp ****     
 1538              		.loc 1 220 31 view .LVU473
 1539 0052 E7EE257A 		vfma.f32	s15, s14, s11
 1540              	.LVL101:
 1541              	.LBB331:
 1542              	.LBI272:
  64:DaisySP/Source/Utility/dsp.h **** {
 1543              		.loc 5 64 14 is_stmt 1 view .LVU474
 1544              		.loc 5 66 5 view .LVU475
 1545              	.LBB279:
 1546              	.LBI273:
  40:DaisySP/Source/Utility/dsp.h **** {
 1547              		.loc 5 40 14 view .LVU476
 1548              	.LBB275:
  42:DaisySP/Source/Utility/dsp.h **** #ifdef __arm__
 1549              		.loc 5 42 5 view .LVU477
  44:DaisySP/Source/Utility/dsp.h **** #else
 1550              		.loc 5 44 5 view .LVU478
 1551              		.syntax unified
 1552              	@ 44 "DaisySP/Source/Utility/dsp.h" 1
 1553 0056 C7FE867A 		vmaxnm.f32 s15, s15, s12
 1554              	@ 0 "" 2
 1555              	.LVL102:
  48:DaisySP/Source/Utility/dsp.h **** }
 1556              		.loc 5 48 5 view .LVU479
  48:DaisySP/Source/Utility/dsp.h **** }
 1557              		.loc 5 48 5 is_stmt 0 view .LVU480
 1558              		.thumb
 1559              		.syntax unified
 1560              	.LBE275:
 1561              	.LBE279:
 1562              	.LBB280:
 1563              	.LBI276:
  51:DaisySP/Source/Utility/dsp.h **** {
 1564              		.loc 5 51 14 is_stmt 1 view .LVU481
 1565              	.LBB278:
  53:DaisySP/Source/Utility/dsp.h **** #ifdef __arm__
 1566              		.loc 5 53 5 view .LVU482
ARM GAS  /tmp/cc8O3cyV.s 			page 44


  55:DaisySP/Source/Utility/dsp.h **** #else
 1567              		.loc 5 55 5 view .LVU483
 1568              		.syntax unified
 1569              	@ 55 "DaisySP/Source/Utility/dsp.h" 1
 1570 005a C7FEE67A 		vminnm.f32 s15, s15, s13
 1571              	@ 0 "" 2
 1572              	.LVL103:
  59:DaisySP/Source/Utility/dsp.h **** }
 1573              		.loc 5 59 5 view .LVU484
  59:DaisySP/Source/Utility/dsp.h **** }
 1574              		.loc 5 59 5 is_stmt 0 view .LVU485
 1575              		.thumb
 1576              		.syntax unified
 1577              	.LBE278:
 1578              	.LBE280:
 1579              	.LBE331:
 220:processing.cpp ****     
 1580              		.loc 1 220 23 discriminator 1 view .LVU486
 1581 005e C2ED007A 		vstr.32	s15, [r2]
 1582              	.LVL104:
 1583              		.loc 1 222 5 is_stmt 1 view .LVU487
 1584              	.LBB332:
 1585 0062 E3B9     		cbnz	r3, .L101
 1586              	.LBB282:
 223:processing.cpp ****         float sz_mod = (1.0f - stereo) + (rand_.Process() * stereo);
 1587              		.loc 1 223 9 view .LVU488
 1588              	.LVL105:
 1589              	.LBB283:
 1590              	.LBI283:
  97:processing.h  ****         {
 1591              		.loc 2 97 15 view .LVU489
 1592              	.LBB284:
  99:processing.h  ****             return (float)seed_ / 4294967295.0f;
 1593              		.loc 2 99 13 view .LVU490
  99:processing.h  ****             return (float)seed_ / 4294967295.0f;
 1594              		.loc 2 99 28 is_stmt 0 view .LVU491
 1595 0064 AB49     		ldr	r1, .L179+4
 1596              	.LVL106:
  99:processing.h  ****             return (float)seed_ / 4294967295.0f;
 1597              		.loc 2 99 39 view .LVU492
 1598 0066 AC4A     		ldr	r2, .L179+8
 1599 0068 D0F8C060 		ldr	r6, [r0, #192]
 1600              	.LBE284:
 1601              	.LBE283:
 224:processing.cpp ****         uint32_t sz = (uint32_t)(effective_params[PARAM_GRAIN_SIZE] * sample_rate_ * sz_mod);
 1602              		.loc 1 224 67 view .LVU493
 1603 006c D0ED256A 		vldr.32	s13, [r0, #148]
 1604              	.LBB289:
 1605              	.LBB285:
  99:processing.h  ****             return (float)seed_ / 4294967295.0f;
 1606              		.loc 2 99 39 view .LVU494
 1607 0070 01FB0628 		mla	r8, r1, r6, r2
 1608              		.loc 2 100 13 is_stmt 1 view .LVU495
 1609              	.LVL107:
 1610              		.loc 2 100 13 is_stmt 0 view .LVU496
 1611              	.LBE285:
 1612              	.LBE289:
ARM GAS  /tmp/cc8O3cyV.s 			page 45


 1613              		.loc 1 224 9 is_stmt 1 view .LVU497
 1614              		.loc 1 224 71 is_stmt 0 view .LVU498
 1615 0074 90ED2F6A 		vldr.32	s12, [r0, #188]
 1616              	.LVL108:
 225:processing.cpp ****         float start = (float)write_pos - (rand_.Process() * spray * 0.5f * sample_rate_);
 1617              		.loc 1 225 9 is_stmt 1 view .LVU499
 1618              	.LBB290:
 1619              	.LBI290:
  97:processing.h  ****         {
 1620              		.loc 2 97 15 view .LVU500
 1621              	.LBB291:
  99:processing.h  ****             return (float)seed_ / 4294967295.0f;
 1622              		.loc 2 99 13 view .LVU501
  99:processing.h  ****             return (float)seed_ / 4294967295.0f;
 1623              		.loc 2 99 39 is_stmt 0 view .LVU502
 1624 0078 01FB082E 		mla	lr, r1, r8, r2
 1625 007c A749     		ldr	r1, .L179+12
 1626 007e 0A46     		mov	r2, r1
  99:processing.h  ****             return (float)seed_ / 4294967295.0f;
 1627              		.loc 2 99 19 view .LVU503
 1628 0080 C0F8C0E0 		str	lr, [r0, #192]
 1629              		.loc 2 100 13 is_stmt 1 view .LVU504
 1630              	.LVL109:
 1631              		.loc 2 100 13 is_stmt 0 view .LVU505
 1632              	.LBE291:
 1633              	.LBE290:
 226:processing.cpp ****         for(int i = 0; i < MAX_GRAINS; i++) { 
 1634              		.loc 1 226 9 is_stmt 1 view .LVU506
 1635              	.LBB295:
 1636              		.loc 1 226 26 discriminator 1 view .LVU507
 1637              	.L110:
 227:processing.cpp ****             if(!grains_l[i].active) { grains_l[i].Start(start, effective_params[PARAM_PITCH], sz, s
 1638              		.loc 1 227 13 view .LVU508
 226:processing.cpp ****         for(int i = 0; i < MAX_GRAINS; i++) { 
 1639              		.loc 1 226 9 discriminator 2 view .LVU509
 1640              		.loc 1 227 13 is_stmt 0 view .LVU510
 1641 0084 92F800C0 		ldrb	ip, [r2]	@ zero_extendqisi2
 226:processing.cpp ****         for(int i = 0; i < MAX_GRAINS; i++) { 
 1642              		.loc 1 226 26 discriminator 1 view .LVU511
 1643 0088 1832     		adds	r2, r2, #24
 1644              		.loc 1 227 13 view .LVU512
 1645 008a BCF1000F 		cmp	ip, #0
 1646 008e 00F04D81 		beq	.L173
 226:processing.cpp ****         for(int i = 0; i < MAX_GRAINS; i++) { 
 1647              		.loc 1 226 9 discriminator 2 view .LVU513
 1648 0092 0133     		adds	r3, r3, #1
 1649              	.LVL110:
 226:processing.cpp ****         for(int i = 0; i < MAX_GRAINS; i++) { 
 1650              		.loc 1 226 26 is_stmt 1 discriminator 1 view .LVU514
 1651 0094 082B     		cmp	r3, #8
 1652 0096 F5D1     		bne	.L110
 1653              	.LVL111:
 1654              	.L109:
 226:processing.cpp ****         for(int i = 0; i < MAX_GRAINS; i++) { 
 1655              		.loc 1 226 26 is_stmt 0 discriminator 1 view .LVU515
 1656              	.LBE295:
 228:processing.cpp ****         }
ARM GAS  /tmp/cc8O3cyV.s 			page 46


 229:processing.cpp ****         UpdateGrainParams(); grain_trig_counter_l = grain_trig_interval_l;
 1657              		.loc 1 229 9 is_stmt 1 view .LVU516
 1658              		.loc 1 229 26 is_stmt 0 view .LVU517
 1659 0098 FFF7FEFF 		bl	_ZN10Processing17UpdateGrainParamsEv
 1660              	.LVL112:
 1661              		.loc 1 229 30 is_stmt 1 discriminator 1 view .LVU518
 1662              		.loc 1 229 53 is_stmt 0 discriminator 1 view .LVU519
 1663 009c 0369     		ldr	r3, [r0, #16]
 1664              	.LVL113:
 1665              	.L101:
 1666              		.loc 1 229 53 discriminator 1 view .LVU520
 1667              	.LBE282:
 1668              	.LBE332:
 230:processing.cpp ****     } grain_trig_counter_l--;
 1669              		.loc 1 230 7 is_stmt 1 view .LVU521
 1670              		.loc 1 230 27 is_stmt 0 view .LVU522
 1671 009e 013B     		subs	r3, r3, #1
 1672              	.LBB333:
 1673              	.LBB334:
 1674              	.LBB335:
 231:processing.cpp **** 
 232:processing.cpp ****     if(grain_trig_counter_r == 0) {
 233:processing.cpp ****         float sz_mod = (1.0f - stereo) + (rand_.Process() * stereo);
 234:processing.cpp ****         uint32_t sz = (uint32_t)(effective_params[PARAM_GRAIN_SIZE] * sample_rate_ * sz_mod);
 235:processing.cpp ****         float start = (float)write_pos - (rand_.Process() * spray * 0.5f * sample_rate_);
 236:processing.cpp ****         for(int i = 0; i < MAX_GRAINS; i++) { 
 237:processing.cpp ****             if(!grains_r[i].active) { grains_r[i].Start(start, effective_params[PARAM_PITCH], sz, s
 1675              		.loc 1 237 113 discriminator 1 view .LVU523
 1676 00a0 4168     		ldr	r1, [r0, #4]
 1677              	.LBE335:
 1678              	.LBE334:
 1679              	.LBE333:
 230:processing.cpp ****     } grain_trig_counter_l--;
 1680              		.loc 1 230 27 view .LVU524
 1681 00a2 8360     		str	r3, [r0, #8]
 232:processing.cpp ****         float sz_mod = (1.0f - stereo) + (rand_.Process() * stereo);
 1682              		.loc 1 232 5 is_stmt 1 view .LVU525
 1683              	.LBB395:
 232:processing.cpp ****         float sz_mod = (1.0f - stereo) + (rand_.Process() * stereo);
 1684              		.loc 1 232 8 is_stmt 0 view .LVU526
 1685 00a4 C368     		ldr	r3, [r0, #12]
 232:processing.cpp ****         float sz_mod = (1.0f - stereo) + (rand_.Process() * stereo);
 1686              		.loc 1 232 5 view .LVU527
 1687 00a6 EBB9     		cbnz	r3, .L111
 1688              	.LBB393:
 233:processing.cpp ****         uint32_t sz = (uint32_t)(effective_params[PARAM_GRAIN_SIZE] * sample_rate_ * sz_mod);
 1689              		.loc 1 233 9 is_stmt 1 view .LVU528
 1690              	.LVL114:
 1691              	.LBB360:
 1692              	.LBI360:
  97:processing.h  ****         {
 1693              		.loc 2 97 15 view .LVU529
 1694              	.LBB361:
  99:processing.h  ****             return (float)seed_ / 4294967295.0f;
 1695              		.loc 2 99 13 view .LVU530
  99:processing.h  ****             return (float)seed_ / 4294967295.0f;
 1696              		.loc 2 99 28 is_stmt 0 view .LVU531
ARM GAS  /tmp/cc8O3cyV.s 			page 47


 1697 00a8 9A4A     		ldr	r2, .L179+4
 1698              	.LBE361:
 1699              	.LBE360:
 1700              	.LBB367:
 236:processing.cpp ****             if(!grains_r[i].active) { grains_r[i].Start(start, effective_params[PARAM_PITCH], sz, s
 1701              		.loc 1 236 17 view .LVU532
 1702 00aa 9C46     		mov	ip, r3
 1703              	.LBE367:
 1704              	.LBB368:
 1705              	.LBB362:
  99:processing.h  ****             return (float)seed_ / 4294967295.0f;
 1706              		.loc 2 99 39 view .LVU533
 1707 00ac D0F8C060 		ldr	r6, [r0, #192]
 1708 00b0 994B     		ldr	r3, .L179+8
 1709              	.LBE362:
 1710              	.LBE368:
 234:processing.cpp ****         float start = (float)write_pos - (rand_.Process() * spray * 0.5f * sample_rate_);
 1711              		.loc 1 234 67 view .LVU534
 1712 00b2 90ED256A 		vldr.32	s12, [r0, #148]
 1713              	.LBB369:
 1714              	.LBB363:
  99:processing.h  ****             return (float)seed_ / 4294967295.0f;
 1715              		.loc 2 99 39 view .LVU535
 1716 00b6 02FB0639 		mla	r9, r2, r6, r3
 1717              		.loc 2 100 13 is_stmt 1 view .LVU536
 1718              	.LVL115:
 1719              		.loc 2 100 13 is_stmt 0 view .LVU537
 1720              	.LBE363:
 1721              	.LBE369:
 234:processing.cpp ****         float start = (float)write_pos - (rand_.Process() * spray * 0.5f * sample_rate_);
 1722              		.loc 1 234 9 is_stmt 1 view .LVU538
 234:processing.cpp ****         float start = (float)write_pos - (rand_.Process() * spray * 0.5f * sample_rate_);
 1723              		.loc 1 234 71 is_stmt 0 view .LVU539
 1724 00ba D0ED2F5A 		vldr.32	s11, [r0, #188]
 1725              	.LVL116:
 235:processing.cpp ****         for(int i = 0; i < MAX_GRAINS; i++) { 
 1726              		.loc 1 235 9 is_stmt 1 view .LVU540
 1727              	.LBB370:
 1728              	.LBI370:
  97:processing.h  ****         {
 1729              		.loc 2 97 15 view .LVU541
 1730              	.LBB371:
  99:processing.h  ****             return (float)seed_ / 4294967295.0f;
 1731              		.loc 2 99 13 view .LVU542
  99:processing.h  ****             return (float)seed_ / 4294967295.0f;
 1732              		.loc 2 99 39 is_stmt 0 view .LVU543
 1733 00be 02FB0938 		mla	r8, r2, r9, r3
 1734 00c2 974A     		ldr	r2, .L179+16
 1735 00c4 9646     		mov	lr, r2
  99:processing.h  ****             return (float)seed_ / 4294967295.0f;
 1736              		.loc 2 99 19 view .LVU544
 1737 00c6 C0F8C080 		str	r8, [r0, #192]
 1738              		.loc 2 100 13 is_stmt 1 view .LVU545
 1739              	.LVL117:
 1740              		.loc 2 100 13 is_stmt 0 view .LVU546
 1741              	.LBE371:
 1742              	.LBE370:
ARM GAS  /tmp/cc8O3cyV.s 			page 48


 236:processing.cpp ****             if(!grains_r[i].active) { grains_r[i].Start(start, effective_params[PARAM_PITCH], sz, s
 1743              		.loc 1 236 9 is_stmt 1 view .LVU547
 1744              	.LBB375:
 236:processing.cpp ****             if(!grains_r[i].active) { grains_r[i].Start(start, effective_params[PARAM_PITCH], sz, s
 1745              		.loc 1 236 26 discriminator 1 view .LVU548
 1746              	.L120:
 1747              		.loc 1 237 13 view .LVU549
 236:processing.cpp ****             if(!grains_r[i].active) { grains_r[i].Start(start, effective_params[PARAM_PITCH], sz, s
 1748              		.loc 1 236 9 discriminator 2 view .LVU550
 1749              		.loc 1 237 13 is_stmt 0 view .LVU551
 1750 00ca 9EF80030 		ldrb	r3, [lr]	@ zero_extendqisi2
 236:processing.cpp ****             if(!grains_r[i].active) { grains_r[i].Start(start, effective_params[PARAM_PITCH], sz, s
 1751              		.loc 1 236 26 discriminator 1 view .LVU552
 1752 00ce 0EF1180E 		add	lr, lr, #24
 1753              		.loc 1 237 13 view .LVU553
 1754 00d2 002B     		cmp	r3, #0
 1755 00d4 00F09081 		beq	.L174
 236:processing.cpp ****             if(!grains_r[i].active) { grains_r[i].Start(start, effective_params[PARAM_PITCH], sz, s
 1756              		.loc 1 236 9 discriminator 2 view .LVU554
 1757 00d8 0CF1010C 		add	ip, ip, #1
 1758              	.LVL118:
 236:processing.cpp ****             if(!grains_r[i].active) { grains_r[i].Start(start, effective_params[PARAM_PITCH], sz, s
 1759              		.loc 1 236 26 is_stmt 1 discriminator 1 view .LVU555
 1760 00dc BCF1080F 		cmp	ip, #8
 1761 00e0 F3D1     		bne	.L120
 1762              	.LVL119:
 1763              	.L119:
 236:processing.cpp ****             if(!grains_r[i].active) { grains_r[i].Start(start, effective_params[PARAM_PITCH], sz, s
 1764              		.loc 1 236 26 is_stmt 0 discriminator 1 view .LVU556
 1765              	.LBE375:
 238:processing.cpp ****         }
 239:processing.cpp ****         grain_trig_counter_r = grain_trig_interval_r;
 1766              		.loc 1 239 9 is_stmt 1 view .LVU557
 1767              		.loc 1 239 32 is_stmt 0 view .LVU558
 1768 00e2 4369     		ldr	r3, [r0, #20]
 1769              	.LVL120:
 1770              	.L111:
 1771              		.loc 1 239 32 view .LVU559
 1772              	.LBE393:
 1773              	.LBE395:
 240:processing.cpp ****     } grain_trig_counter_r--;
 1774              		.loc 1 240 7 is_stmt 1 view .LVU560
 1775              		.loc 1 240 27 is_stmt 0 view .LVU561
 1776 00e4 013B     		subs	r3, r3, #1
 241:processing.cpp **** 
 242:processing.cpp ****     float wet_l = 0.0f; float wet_r = 0.0f;
 1777              		.loc 1 242 31 view .LVU562
 1778 00e6 DFED8F4A 		vldr.32	s9, .L179+20
 1779 00ea 8D4A     		ldr	r2, .L179+16
 240:processing.cpp ****     } grain_trig_counter_r--;
 1780              		.loc 1 240 27 view .LVU563
 1781 00ec C360     		str	r3, [r0, #12]
 1782              		.loc 1 242 5 is_stmt 1 view .LVU564
 1783              	.LVL121:
 1784              		.loc 1 242 25 view .LVU565
 243:processing.cpp ****     for(int i = 0; i < MAX_GRAINS; i++) { 
 1785              		.loc 1 243 5 view .LVU566
ARM GAS  /tmp/cc8O3cyV.s 			page 49


 1786              	.LBB396:
 1787              		.loc 1 243 22 discriminator 1 view .LVU567
 1788              	.LBE396:
 242:processing.cpp ****     for(int i = 0; i < MAX_GRAINS; i++) { 
 1789              		.loc 1 242 11 is_stmt 0 view .LVU568
 1790 00ee B0EE645A 		vmov.f32	s10, s9
 1791 00f2 8A4B     		ldr	r3, .L179+12
 1792 00f4 03F1C008 		add	r8, r3, #192
 1793              	.LVL122:
 1794              	.L143:
 1795              	.LBB431:
 244:processing.cpp ****         wet_l += grains_l[i].Process(buffer, buffer_len_samples); 
 1796              		.loc 1 244 9 is_stmt 1 view .LVU569
 1797              	.LBB397:
 1798              	.LBI397:
  76:processing.h  ****         {
 1799              		.loc 2 76 15 view .LVU570
 1800              	.LBB398:
  78:processing.h  ****             int32_t i_idx  = (int32_t)read_pos;
 1801              		.loc 2 78 13 view .LVU571
 1802 00f8 93F800C0 		ldrb	ip, [r3]	@ zero_extendqisi2
 1803 00fc BCF1000F 		cmp	ip, #0
 1804 0100 00F0FC80 		beq	.L145
  79:processing.h  ****             float   frac   = read_pos - i_idx;
 1805              		.loc 2 79 13 view .LVU572
  79:processing.h  ****             float   frac   = read_pos - i_idx;
 1806              		.loc 2 79 39 is_stmt 0 view .LVU573
 1807 0104 D3ED017A 		vldr.32	s15, [r3, #4]
 1808              	.LBB399:
 1809              	.LBB400:
  54:processing.h  ****             return (1.0f - pos) * 2.0f;
 1810              		.loc 2 54 13 view .LVU574
 1811 0108 F6EE002A 		vmov.f32	s5, #5.0e-1
 1812              	.LBE400:
 1813              	.LBE399:
  84:processing.h  ****             read_pos += increment;
 1814              		.loc 2 84 31 view .LVU575
 1815 010c D3ED035A 		vldr.32	s11, [r3, #12]
  79:processing.h  ****             float   frac   = read_pos - i_idx;
 1816              		.loc 2 79 21 view .LVU576
 1817 0110 BDEEE77A 		vcvt.s32.f32	s14, s15
 1818              	.LBB405:
 1819              	.LBB401:
  54:processing.h  ****             return (1.0f - pos) * 2.0f;
 1820              		.loc 2 54 13 view .LVU577
 1821 0114 F4EEE25A 		vcmpe.f32	s11, s5
 1822              	.LBE401:
 1823              	.LBE405:
  79:processing.h  ****             float   frac   = read_pos - i_idx;
 1824              		.loc 2 79 21 view .LVU578
 1825 0118 17EE10CA 		vmov	ip, s14	@ int
 1826              	.LVL123:
  80:processing.h  ****             float   samp_a = buffer[i_idx];
 1827              		.loc 2 80 13 is_stmt 1 view .LVU579
  81:processing.h  ****             float   samp_b = buffer[(i_idx + 1) % buffer_len];
 1828              		.loc 2 81 13 view .LVU580
  80:processing.h  ****             float   samp_a = buffer[i_idx];
ARM GAS  /tmp/cc8O3cyV.s 			page 50


 1829              		.loc 2 80 39 is_stmt 0 view .LVU581
 1830 011c B8EEC76A 		vcvt.f32.s32	s12, s14
 1831              	.LBB406:
 1832              	.LBB402:
  54:processing.h  ****             return (1.0f - pos) * 2.0f;
 1833              		.loc 2 54 13 view .LVU582
 1834 0120 F1EE10FA 		vmrs	APSR_nzcv, FPSCR
 1835              	.LBE402:
 1836              	.LBE406:
  82:processing.h  ****             float   samp   = samp_a + (samp_b - samp_a) * frac;
 1837              		.loc 2 82 44 view .LVU583
 1838 0124 0CF1010E 		add	lr, ip, #1
  81:processing.h  ****             float   samp_b = buffer[(i_idx + 1) % buffer_len];
 1839              		.loc 2 81 21 view .LVU584
 1840 0128 04EB8C09 		add	r9, r4, ip, lsl #2
  80:processing.h  ****             float   samp_a = buffer[i_idx];
 1841              		.loc 2 80 21 view .LVU585
 1842 012c 37EEC66A 		vsub.f32	s12, s15, s12
 1843              	.LVL124:
  81:processing.h  ****             float   samp_b = buffer[(i_idx + 1) % buffer_len];
 1844              		.loc 2 81 21 view .LVU586
 1845 0130 99ED007A 		vldr.32	s14, [r9]
 1846              	.LVL125:
  82:processing.h  ****             float   samp   = samp_a + (samp_b - samp_a) * frac;
 1847              		.loc 2 82 13 is_stmt 1 view .LVU587
  83:processing.h  ****             float amp = TriEnv(env_pos);
 1848              		.loc 2 83 13 view .LVU588
  82:processing.h  ****             float   samp   = samp_a + (samp_b - samp_a) * frac;
 1849              		.loc 2 82 49 is_stmt 0 view .LVU589
 1850 0134 BEFBF1FC 		udiv	ip, lr, r1
 1851              	.LVL126:
  82:processing.h  ****             float   samp   = samp_a + (samp_b - samp_a) * frac;
 1852              		.loc 2 82 49 view .LVU590
 1853 0138 01FB1CEE 		mls	lr, r1, ip, lr
 1854              	.LVL127:
  82:processing.h  ****             float   samp   = samp_a + (samp_b - samp_a) * frac;
 1855              		.loc 2 82 21 view .LVU591
 1856 013c 04EB8E0E 		add	lr, r4, lr, lsl #2
  83:processing.h  ****             float amp = TriEnv(env_pos);
 1857              		.loc 2 83 47 view .LVU592
 1858 0140 9EED004A 		vldr.32	s8, [lr]
 1859 0144 34EE474A 		vsub.f32	s8, s8, s14
  83:processing.h  ****             float amp = TriEnv(env_pos);
 1860              		.loc 2 83 21 view .LVU593
 1861 0148 A6EE047A 		vfma.f32	s14, s12, s8
 1862              	.LVL128:
  83:processing.h  ****             float amp = TriEnv(env_pos);
 1863              		.loc 2 83 21 view .LVU594
 1864 014c F0EE476A 		vmov.f32	s13, s14
 1865              	.LVL129:
  84:processing.h  ****             read_pos += increment;
 1866              		.loc 2 84 13 is_stmt 1 view .LVU595
 1867              	.LBB407:
 1868              	.LBI399:
  52:processing.h  ****         {
 1869              		.loc 2 52 22 view .LVU596
 1870              	.LBB403:
ARM GAS  /tmp/cc8O3cyV.s 			page 51


  54:processing.h  ****             return (1.0f - pos) * 2.0f;
 1871              		.loc 2 54 13 view .LVU597
 1872 0150 00F1DA80 		bmi	.L175
  55:processing.h  ****         }
 1873              		.loc 2 55 13 view .LVU598
  55:processing.h  ****         }
 1874              		.loc 2 55 26 is_stmt 0 view .LVU599
 1875 0154 B7EE006A 		vmov.f32	s12, #1.0e+0
 1876              	.LVL130:
  55:processing.h  ****         }
 1877              		.loc 2 55 26 view .LVU600
 1878 0158 36EE656A 		vsub.f32	s12, s12, s11
  55:processing.h  ****         }
 1879              		.loc 2 55 35 view .LVU601
 1880 015c 36EE066A 		vadd.f32	s12, s12, s12
 1881              	.L124:
 1882              	.LVL131:
  55:processing.h  ****         }
 1883              		.loc 2 55 35 view .LVU602
 1884              	.LBE403:
 1885              	.LBE407:
  85:processing.h  ****             while(read_pos >= buffer_len) read_pos -= buffer_len;
 1886              		.loc 2 85 13 is_stmt 1 view .LVU603
  85:processing.h  ****             while(read_pos >= buffer_len) read_pos -= buffer_len;
 1887              		.loc 2 85 22 is_stmt 0 view .LVU604
 1888 0160 93ED024A 		vldr.32	s8, [r3, #8]
  86:processing.h  ****             while(read_pos < 0) read_pos += buffer_len;
 1889              		.loc 2 86 28 discriminator 1 view .LVU605
 1890 0164 07EE101A 		vmov	s14, r1	@ int
  85:processing.h  ****             while(read_pos >= buffer_len) read_pos -= buffer_len;
 1891              		.loc 2 85 22 view .LVU606
 1892 0168 77EE847A 		vadd.f32	s15, s15, s8
 1893              	.LVL132:
  86:processing.h  ****             while(read_pos < 0) read_pos += buffer_len;
 1894              		.loc 2 86 13 is_stmt 1 view .LVU607
  86:processing.h  ****             while(read_pos < 0) read_pos += buffer_len;
 1895              		.loc 2 86 28 discriminator 1 view .LVU608
 1896 016c B8EE477A 		vcvt.f32.u32	s14, s14
 1897 0170 B4EEE77A 		vcmpe.f32	s14, s15
 1898 0174 F1EE10FA 		vmrs	APSR_nzcv, FPSCR
 1899 0178 06D8     		bhi	.L171
 1900              	.L125:
  86:processing.h  ****             while(read_pos < 0) read_pos += buffer_len;
 1901              		.loc 2 86 43 discriminator 2 view .LVU609
  86:processing.h  ****             while(read_pos < 0) read_pos += buffer_len;
 1902              		.loc 2 86 52 is_stmt 0 discriminator 2 view .LVU610
 1903 017a 77EEC77A 		vsub.f32	s15, s15, s14
  86:processing.h  ****             while(read_pos < 0) read_pos += buffer_len;
 1904              		.loc 2 86 28 is_stmt 1 discriminator 1 view .LVU611
 1905 017e B4EEE77A 		vcmpe.f32	s14, s15
 1906 0182 F1EE10FA 		vmrs	APSR_nzcv, FPSCR
 1907 0186 F8D9     		bls	.L125
 1908              	.L171:
  87:processing.h  ****             env_pos += env_inc;
 1909              		.loc 2 87 28 is_stmt 0 discriminator 1 view .LVU612
 1910 0188 F5EEC07A 		vcmpe.f32	s15, #0
 1911 018c C3ED017A 		vstr.32	s15, [r3, #4]
ARM GAS  /tmp/cc8O3cyV.s 			page 52


 1912              	.LVL133:
  87:processing.h  ****             env_pos += env_inc;
 1913              		.loc 2 87 28 is_stmt 1 discriminator 1 view .LVU613
 1914 0190 F1EE10FA 		vmrs	APSR_nzcv, FPSCR
 1915 0194 08D5     		bpl	.L127
 1916              	.L129:
  87:processing.h  ****             env_pos += env_inc;
 1917              		.loc 2 87 33 discriminator 2 view .LVU614
  87:processing.h  ****             env_pos += env_inc;
 1918              		.loc 2 87 42 is_stmt 0 discriminator 2 view .LVU615
 1919 0196 77EE877A 		vadd.f32	s15, s15, s14
  87:processing.h  ****             env_pos += env_inc;
 1920              		.loc 2 87 28 is_stmt 1 discriminator 1 view .LVU616
 1921 019a F5EEC07A 		vcmpe.f32	s15, #0
 1922 019e F1EE10FA 		vmrs	APSR_nzcv, FPSCR
 1923 01a2 F8D4     		bmi	.L129
 1924 01a4 C3ED017A 		vstr.32	s15, [r3, #4]
 1925              	.L127:
  88:processing.h  ****             if(env_pos >= 1.0f) active = false;
 1926              		.loc 2 88 13 view .LVU617
  88:processing.h  ****             if(env_pos >= 1.0f) active = false;
 1927              		.loc 2 88 21 is_stmt 0 view .LVU618
 1928 01a8 93ED047A 		vldr.32	s14, [r3, #16]
  89:processing.h  ****             return samp * amp;
 1929              		.loc 2 89 13 view .LVU619
 1930 01ac F7EE007A 		vmov.f32	s15, #1.0e+0
  88:processing.h  ****             if(env_pos >= 1.0f) active = false;
 1931              		.loc 2 88 21 view .LVU620
 1932 01b0 75EE875A 		vadd.f32	s11, s11, s14
  89:processing.h  ****             return samp * amp;
 1933              		.loc 2 89 13 view .LVU621
 1934 01b4 F4EEE75A 		vcmpe.f32	s11, s15
  88:processing.h  ****             if(env_pos >= 1.0f) active = false;
 1935              		.loc 2 88 21 view .LVU622
 1936 01b8 C3ED035A 		vstr.32	s11, [r3, #12]
  89:processing.h  ****             return samp * amp;
 1937              		.loc 2 89 13 is_stmt 1 view .LVU623
 1938 01bc F1EE10FA 		vmrs	APSR_nzcv, FPSCR
 1939 01c0 03DB     		blt	.L130
  89:processing.h  ****             return samp * amp;
 1940              		.loc 2 89 33 discriminator 1 view .LVU624
  89:processing.h  ****             return samp * amp;
 1941              		.loc 2 89 40 is_stmt 0 discriminator 1 view .LVU625
 1942 01c2 4FF0000C 		mov	ip, #0
 1943 01c6 83F800C0 		strb	ip, [r3]
 1944              	.L130:
  90:processing.h  ****         }
 1945              		.loc 2 90 13 is_stmt 1 view .LVU626
  90:processing.h  ****         }
 1946              		.loc 2 90 27 is_stmt 0 view .LVU627
 1947 01ca 66EE867A 		vmul.f32	s15, s13, s12
 1948              	.LVL134:
 1949              	.L121:
  90:processing.h  ****         }
 1950              		.loc 2 90 27 view .LVU628
 1951              	.LBE398:
 1952              	.LBE397:
ARM GAS  /tmp/cc8O3cyV.s 			page 53


 1953              	.LBB411:
 1954              	.LBB412:
  78:processing.h  ****             int32_t i_idx  = (int32_t)read_pos;
 1955              		.loc 2 78 13 view .LVU629
 1956 01ce 92F800C0 		ldrb	ip, [r2]	@ zero_extendqisi2
 1957              	.LBE412:
 1958              	.LBE411:
 1959              		.loc 1 244 15 discriminator 1 view .LVU630
 1960 01d2 35EE275A 		vadd.f32	s10, s10, s15
 1961              	.LVL135:
 245:processing.cpp ****         wet_r += grains_r[i].Process(buffer, buffer_len_samples); 
 1962              		.loc 1 245 9 is_stmt 1 view .LVU631
 1963              	.LBB426:
 1964              	.LBI411:
  76:processing.h  ****         {
 1965              		.loc 2 76 15 view .LVU632
 1966              	.LBB423:
  78:processing.h  ****             int32_t i_idx  = (int32_t)read_pos;
 1967              		.loc 2 78 13 view .LVU633
 1968 01d6 BCF1000F 		cmp	ip, #0
 1969 01da 00F08C80 		beq	.L146
  79:processing.h  ****             float   frac   = read_pos - i_idx;
 1970              		.loc 2 79 13 view .LVU634
  79:processing.h  ****             float   frac   = read_pos - i_idx;
 1971              		.loc 2 79 39 is_stmt 0 view .LVU635
 1972 01de D2ED017A 		vldr.32	s15, [r2, #4]
 1973              	.LBB413:
 1974              	.LBB414:
  54:processing.h  ****             return (1.0f - pos) * 2.0f;
 1975              		.loc 2 54 13 view .LVU636
 1976 01e2 F6EE002A 		vmov.f32	s5, #5.0e-1
 1977              	.LBE414:
 1978              	.LBE413:
  84:processing.h  ****             read_pos += increment;
 1979              		.loc 2 84 31 view .LVU637
 1980 01e6 D2ED035A 		vldr.32	s11, [r2, #12]
  79:processing.h  ****             float   frac   = read_pos - i_idx;
 1981              		.loc 2 79 21 view .LVU638
 1982 01ea BDEEE77A 		vcvt.s32.f32	s14, s15
 1983              	.LBB419:
 1984              	.LBB415:
  54:processing.h  ****             return (1.0f - pos) * 2.0f;
 1985              		.loc 2 54 13 view .LVU639
 1986 01ee F4EEE25A 		vcmpe.f32	s11, s5
 1987              	.LBE415:
 1988              	.LBE419:
  79:processing.h  ****             float   frac   = read_pos - i_idx;
 1989              		.loc 2 79 21 view .LVU640
 1990 01f2 17EE10CA 		vmov	ip, s14	@ int
 1991              	.LVL136:
  80:processing.h  ****             float   samp_a = buffer[i_idx];
 1992              		.loc 2 80 13 is_stmt 1 view .LVU641
  81:processing.h  ****             float   samp_b = buffer[(i_idx + 1) % buffer_len];
 1993              		.loc 2 81 13 view .LVU642
  80:processing.h  ****             float   samp_a = buffer[i_idx];
 1994              		.loc 2 80 39 is_stmt 0 view .LVU643
 1995 01f6 B8EEC76A 		vcvt.f32.s32	s12, s14
ARM GAS  /tmp/cc8O3cyV.s 			page 54


 1996              	.LBB420:
 1997              	.LBB416:
  54:processing.h  ****             return (1.0f - pos) * 2.0f;
 1998              		.loc 2 54 13 view .LVU644
 1999 01fa F1EE10FA 		vmrs	APSR_nzcv, FPSCR
 2000              	.LBE416:
 2001              	.LBE420:
  82:processing.h  ****             float   samp   = samp_a + (samp_b - samp_a) * frac;
 2002              		.loc 2 82 44 view .LVU645
 2003 01fe 0CF1010E 		add	lr, ip, #1
  81:processing.h  ****             float   samp_b = buffer[(i_idx + 1) % buffer_len];
 2004              		.loc 2 81 21 view .LVU646
 2005 0202 04EB8C09 		add	r9, r4, ip, lsl #2
  80:processing.h  ****             float   samp_a = buffer[i_idx];
 2006              		.loc 2 80 21 view .LVU647
 2007 0206 37EEC66A 		vsub.f32	s12, s15, s12
 2008              	.LVL137:
  81:processing.h  ****             float   samp_b = buffer[(i_idx + 1) % buffer_len];
 2009              		.loc 2 81 21 view .LVU648
 2010 020a 99ED007A 		vldr.32	s14, [r9]
 2011              	.LVL138:
  82:processing.h  ****             float   samp   = samp_a + (samp_b - samp_a) * frac;
 2012              		.loc 2 82 13 is_stmt 1 view .LVU649
  83:processing.h  ****             float amp = TriEnv(env_pos);
 2013              		.loc 2 83 13 view .LVU650
  82:processing.h  ****             float   samp   = samp_a + (samp_b - samp_a) * frac;
 2014              		.loc 2 82 49 is_stmt 0 view .LVU651
 2015 020e BEFBF1FC 		udiv	ip, lr, r1
 2016              	.LVL139:
  82:processing.h  ****             float   samp   = samp_a + (samp_b - samp_a) * frac;
 2017              		.loc 2 82 49 view .LVU652
 2018 0212 01FB1CEE 		mls	lr, r1, ip, lr
 2019              	.LVL140:
  82:processing.h  ****             float   samp   = samp_a + (samp_b - samp_a) * frac;
 2020              		.loc 2 82 21 view .LVU653
 2021 0216 04EB8E0E 		add	lr, r4, lr, lsl #2
  83:processing.h  ****             float amp = TriEnv(env_pos);
 2022              		.loc 2 83 47 view .LVU654
 2023 021a 9EED004A 		vldr.32	s8, [lr]
 2024 021e 34EE474A 		vsub.f32	s8, s8, s14
  83:processing.h  ****             float amp = TriEnv(env_pos);
 2025              		.loc 2 83 21 view .LVU655
 2026 0222 A6EE047A 		vfma.f32	s14, s12, s8
 2027              	.LVL141:
  83:processing.h  ****             float amp = TriEnv(env_pos);
 2028              		.loc 2 83 21 view .LVU656
 2029 0226 F0EE476A 		vmov.f32	s13, s14
 2030              	.LVL142:
  84:processing.h  ****             read_pos += increment;
 2031              		.loc 2 84 13 is_stmt 1 view .LVU657
 2032              	.LBB421:
 2033              	.LBI413:
  52:processing.h  ****         {
 2034              		.loc 2 52 22 view .LVU658
 2035              	.LBB417:
  54:processing.h  ****             return (1.0f - pos) * 2.0f;
 2036              		.loc 2 54 13 view .LVU659
ARM GAS  /tmp/cc8O3cyV.s 			page 55


 2037 022a 6AD4     		bmi	.L176
  55:processing.h  ****         }
 2038              		.loc 2 55 13 view .LVU660
  55:processing.h  ****         }
 2039              		.loc 2 55 26 is_stmt 0 view .LVU661
 2040 022c B7EE006A 		vmov.f32	s12, #1.0e+0
 2041              	.LVL143:
  55:processing.h  ****         }
 2042              		.loc 2 55 26 view .LVU662
 2043 0230 36EE656A 		vsub.f32	s12, s12, s11
  55:processing.h  ****         }
 2044              		.loc 2 55 35 view .LVU663
 2045 0234 36EE066A 		vadd.f32	s12, s12, s12
 2046              	.L135:
 2047              	.LVL144:
  55:processing.h  ****         }
 2048              		.loc 2 55 35 view .LVU664
 2049              	.LBE417:
 2050              	.LBE421:
  85:processing.h  ****             while(read_pos >= buffer_len) read_pos -= buffer_len;
 2051              		.loc 2 85 13 is_stmt 1 view .LVU665
  85:processing.h  ****             while(read_pos >= buffer_len) read_pos -= buffer_len;
 2052              		.loc 2 85 22 is_stmt 0 view .LVU666
 2053 0238 92ED024A 		vldr.32	s8, [r2, #8]
  86:processing.h  ****             while(read_pos < 0) read_pos += buffer_len;
 2054              		.loc 2 86 28 discriminator 1 view .LVU667
 2055 023c 07EE101A 		vmov	s14, r1	@ int
  85:processing.h  ****             while(read_pos >= buffer_len) read_pos -= buffer_len;
 2056              		.loc 2 85 22 view .LVU668
 2057 0240 77EE847A 		vadd.f32	s15, s15, s8
 2058              	.LVL145:
  86:processing.h  ****             while(read_pos < 0) read_pos += buffer_len;
 2059              		.loc 2 86 13 is_stmt 1 view .LVU669
  86:processing.h  ****             while(read_pos < 0) read_pos += buffer_len;
 2060              		.loc 2 86 28 discriminator 1 view .LVU670
 2061 0244 B8EE477A 		vcvt.f32.u32	s14, s14
 2062 0248 B4EEE77A 		vcmpe.f32	s14, s15
 2063 024c F1EE10FA 		vmrs	APSR_nzcv, FPSCR
 2064 0250 06D8     		bhi	.L172
 2065              	.L136:
  86:processing.h  ****             while(read_pos < 0) read_pos += buffer_len;
 2066              		.loc 2 86 43 discriminator 2 view .LVU671
  86:processing.h  ****             while(read_pos < 0) read_pos += buffer_len;
 2067              		.loc 2 86 52 is_stmt 0 discriminator 2 view .LVU672
 2068 0252 77EEC77A 		vsub.f32	s15, s15, s14
  86:processing.h  ****             while(read_pos < 0) read_pos += buffer_len;
 2069              		.loc 2 86 28 is_stmt 1 discriminator 1 view .LVU673
 2070 0256 B4EEE77A 		vcmpe.f32	s14, s15
 2071 025a F1EE10FA 		vmrs	APSR_nzcv, FPSCR
 2072 025e F8D9     		bls	.L136
 2073              	.L172:
  87:processing.h  ****             env_pos += env_inc;
 2074              		.loc 2 87 28 is_stmt 0 discriminator 1 view .LVU674
 2075 0260 F5EEC07A 		vcmpe.f32	s15, #0
 2076 0264 C2ED017A 		vstr.32	s15, [r2, #4]
 2077              	.LVL146:
  87:processing.h  ****             env_pos += env_inc;
ARM GAS  /tmp/cc8O3cyV.s 			page 56


 2078              		.loc 2 87 28 is_stmt 1 discriminator 1 view .LVU675
 2079 0268 F1EE10FA 		vmrs	APSR_nzcv, FPSCR
 2080 026c 08D5     		bpl	.L138
 2081              	.L140:
  87:processing.h  ****             env_pos += env_inc;
 2082              		.loc 2 87 33 discriminator 2 view .LVU676
  87:processing.h  ****             env_pos += env_inc;
 2083              		.loc 2 87 42 is_stmt 0 discriminator 2 view .LVU677
 2084 026e 77EE877A 		vadd.f32	s15, s15, s14
  87:processing.h  ****             env_pos += env_inc;
 2085              		.loc 2 87 28 is_stmt 1 discriminator 1 view .LVU678
 2086 0272 F5EEC07A 		vcmpe.f32	s15, #0
 2087 0276 F1EE10FA 		vmrs	APSR_nzcv, FPSCR
 2088 027a F8D4     		bmi	.L140
 2089 027c C2ED017A 		vstr.32	s15, [r2, #4]
 2090              	.L138:
  88:processing.h  ****             if(env_pos >= 1.0f) active = false;
 2091              		.loc 2 88 13 view .LVU679
  88:processing.h  ****             if(env_pos >= 1.0f) active = false;
 2092              		.loc 2 88 21 is_stmt 0 view .LVU680
 2093 0280 92ED047A 		vldr.32	s14, [r2, #16]
  89:processing.h  ****             return samp * amp;
 2094              		.loc 2 89 13 view .LVU681
 2095 0284 F7EE007A 		vmov.f32	s15, #1.0e+0
  88:processing.h  ****             if(env_pos >= 1.0f) active = false;
 2096              		.loc 2 88 21 view .LVU682
 2097 0288 75EE875A 		vadd.f32	s11, s11, s14
  89:processing.h  ****             return samp * amp;
 2098              		.loc 2 89 13 view .LVU683
 2099 028c F4EEE75A 		vcmpe.f32	s11, s15
  88:processing.h  ****             if(env_pos >= 1.0f) active = false;
 2100              		.loc 2 88 21 view .LVU684
 2101 0290 C2ED035A 		vstr.32	s11, [r2, #12]
  89:processing.h  ****             return samp * amp;
 2102              		.loc 2 89 13 is_stmt 1 view .LVU685
 2103 0294 F1EE10FA 		vmrs	APSR_nzcv, FPSCR
 2104 0298 03DB     		blt	.L141
  89:processing.h  ****             return samp * amp;
 2105              		.loc 2 89 33 discriminator 1 view .LVU686
  89:processing.h  ****             return samp * amp;
 2106              		.loc 2 89 40 is_stmt 0 discriminator 1 view .LVU687
 2107 029a 4FF0000C 		mov	ip, #0
 2108 029e 82F800C0 		strb	ip, [r2]
 2109              	.L141:
  90:processing.h  ****         }
 2110              		.loc 2 90 13 is_stmt 1 view .LVU688
  90:processing.h  ****         }
 2111              		.loc 2 90 27 is_stmt 0 view .LVU689
 2112 02a2 66EE867A 		vmul.f32	s15, s13, s12
 2113              	.LVL147:
 2114              	.L132:
  90:processing.h  ****         }
 2115              		.loc 2 90 27 view .LVU690
 2116              	.LBE423:
 2117              	.LBE426:
 243:processing.cpp ****         wet_l += grains_l[i].Process(buffer, buffer_len_samples); 
 2118              		.loc 1 243 22 discriminator 1 view .LVU691
ARM GAS  /tmp/cc8O3cyV.s 			page 57


 2119 02a6 1833     		adds	r3, r3, #24
 2120              		.loc 1 245 15 discriminator 1 view .LVU692
 2121 02a8 74EEA74A 		vadd.f32	s9, s9, s15
 2122              	.LVL148:
 243:processing.cpp ****         wet_l += grains_l[i].Process(buffer, buffer_len_samples); 
 2123              		.loc 1 243 5 is_stmt 1 discriminator 3 view .LVU693
 243:processing.cpp ****         wet_l += grains_l[i].Process(buffer, buffer_len_samples); 
 2124              		.loc 1 243 22 discriminator 1 view .LVU694
 2125 02ac 1832     		adds	r2, r2, #24
 2126 02ae 9845     		cmp	r8, r3
 2127 02b0 7FF422AF 		bne	.L143
 2128              	.LBE431:
 246:processing.cpp ****     }
 247:processing.cpp ****     wet_l *= 0.5f; wet_r *= 0.5f;
 2129              		.loc 1 247 5 view .LVU695
 2130              		.loc 1 247 11 is_stmt 0 view .LVU696
 2131 02b4 F6EE006A 		vmov.f32	s13, #5.0e-1
 248:processing.cpp ****     write_pos++; if(write_pos >= buffer_len_samples) { write_pos = 0; }
 2132              		.loc 1 248 14 view .LVU697
 2133 02b8 0135     		adds	r5, r5, #1
 249:processing.cpp ****     
 250:processing.cpp ****     outl = (inl_g * (1.0f - mix) + wet_l * mix) * post_gain; 
 2134              		.loc 1 250 27 view .LVU698
 2135 02ba B7EE007A 		vmov.f32	s14, #1.0e+0
 248:processing.cpp ****     write_pos++; if(write_pos >= buffer_len_samples) { write_pos = 0; }
 2136              		.loc 1 248 66 discriminator 1 view .LVU699
 2137 02be 8D42     		cmp	r5, r1
 2138 02c0 28BF     		it	cs
 2139 02c2 0025     		movcs	r5, #0
 247:processing.cpp ****     write_pos++; if(write_pos >= buffer_len_samples) { write_pos = 0; }
 2140              		.loc 1 247 11 view .LVU700
 2141 02c4 65EE267A 		vmul.f32	s15, s10, s13
 2142              	.LVL149:
 247:processing.cpp ****     write_pos++; if(write_pos >= buffer_len_samples) { write_pos = 0; }
 2143              		.loc 1 247 20 is_stmt 1 view .LVU701
 247:processing.cpp ****     write_pos++; if(write_pos >= buffer_len_samples) { write_pos = 0; }
 2144              		.loc 1 247 26 is_stmt 0 view .LVU702
 2145 02c8 64EEA64A 		vmul.f32	s9, s9, s13
 2146              	.LVL150:
 248:processing.cpp ****     write_pos++; if(write_pos >= buffer_len_samples) { write_pos = 0; }
 2147              		.loc 1 248 5 is_stmt 1 view .LVU703
 248:processing.cpp ****     write_pos++; if(write_pos >= buffer_len_samples) { write_pos = 0; }
 2148              		.loc 1 248 18 view .LVU704
 2149 02cc 0560     		str	r5, [r0]
 2150              		.loc 1 250 5 view .LVU705
 2151              		.loc 1 250 27 is_stmt 0 view .LVU706
 2152 02ce 37EE637A 		vsub.f32	s14, s14, s7
 2153              		.loc 1 250 42 view .LVU707
 2154 02d2 63EEA77A 		vmul.f32	s15, s7, s15
 2155              	.LVL151:
 251:processing.cpp ****     outr = (inr_g * (1.0f - mix) + wet_r * mix) * post_gain;
 2156              		.loc 1 251 42 view .LVU708
 2157 02d6 63EEA43A 		vmul.f32	s7, s7, s9
 2158              	.LVL152:
 250:processing.cpp ****     outr = (inr_g * (1.0f - mix) + wet_r * mix) * post_gain;
 2159              		.loc 1 250 34 view .LVU709
 2160 02da E7EE007A 		vfma.f32	s15, s14, s0
ARM GAS  /tmp/cc8O3cyV.s 			page 58


 2161              		.loc 1 251 34 view .LVU710
 2162 02de E7EE203A 		vfma.f32	s7, s14, s1
 250:processing.cpp ****     outr = (inr_g * (1.0f - mix) + wet_r * mix) * post_gain;
 2163              		.loc 1 250 49 view .LVU711
 2164 02e2 67EE837A 		vmul.f32	s15, s15, s6
 2165              		.loc 1 251 49 view .LVU712
 2166 02e6 23EE837A 		vmul.f32	s14, s7, s6
 250:processing.cpp ****     outr = (inr_g * (1.0f - mix) + wet_r * mix) * post_gain;
 2167              		.loc 1 250 10 view .LVU713
 2168 02ea C7ED007A 		vstr.32	s15, [r7]
 2169              		.loc 1 251 5 is_stmt 1 view .LVU714
 2170              		.loc 1 251 10 is_stmt 0 view .LVU715
 2171 02ee 8AED007A 		vstr.32	s14, [r10]
 252:processing.cpp **** }...
 2172              		.loc 1 252 1 view .LVU716
 2173 02f2 BDE8F087 		pop	{r4, r5, r6, r7, r8, r9, r10, pc}
 2174              	.LVL153:
 2175              	.L146:
 2176              	.LBB432:
 2177              	.LBB427:
 2178              	.LBB424:
  78:processing.h  ****             int32_t i_idx  = (int32_t)read_pos;
 2179              		.loc 2 78 32 discriminator 1 view .LVU717
 2180 02f6 DFED0B7A 		vldr.32	s15, .L179+20
 2181 02fa D4E7     		b	.L132
 2182              	.LVL154:
 2183              	.L145:
  78:processing.h  ****             int32_t i_idx  = (int32_t)read_pos;
 2184              		.loc 2 78 32 discriminator 1 view .LVU718
 2185              	.LBE424:
 2186              	.LBE427:
 2187              	.LBB428:
 2188              	.LBB409:
 2189 02fc DFED097A 		vldr.32	s15, .L179+20
 2190 0300 65E7     		b	.L121
 2191              	.LVL155:
 2192              	.L176:
  78:processing.h  ****             int32_t i_idx  = (int32_t)read_pos;
 2193              		.loc 2 78 32 discriminator 1 view .LVU719
 2194              	.LBE409:
 2195              	.LBE428:
 2196              	.LBB429:
 2197              	.LBB425:
 2198              	.LBB422:
 2199              	.LBB418:
  54:processing.h  ****             return (1.0f - pos) * 2.0f;
 2200              		.loc 2 54 28 is_stmt 1 discriminator 1 view .LVU720
  54:processing.h  ****             return (1.0f - pos) * 2.0f;
 2201              		.loc 2 54 41 is_stmt 0 discriminator 1 view .LVU721
 2202 0302 35EEA56A 		vadd.f32	s12, s11, s11
 2203              	.LVL156:
  54:processing.h  ****             return (1.0f - pos) * 2.0f;
 2204              		.loc 2 54 41 view .LVU722
 2205 0306 97E7     		b	.L135
 2206              	.LVL157:
 2207              	.L175:
  54:processing.h  ****             return (1.0f - pos) * 2.0f;
ARM GAS  /tmp/cc8O3cyV.s 			page 59


 2208              		.loc 2 54 41 view .LVU723
 2209              	.LBE418:
 2210              	.LBE422:
 2211              	.LBE425:
 2212              	.LBE429:
 2213              	.LBB430:
 2214              	.LBB410:
 2215              	.LBB408:
 2216              	.LBB404:
  54:processing.h  ****             return (1.0f - pos) * 2.0f;
 2217              		.loc 2 54 28 is_stmt 1 discriminator 1 view .LVU724
  54:processing.h  ****             return (1.0f - pos) * 2.0f;
 2218              		.loc 2 54 41 is_stmt 0 discriminator 1 view .LVU725
 2219 0308 35EEA56A 		vadd.f32	s12, s11, s11
 2220              	.LVL158:
  54:processing.h  ****             return (1.0f - pos) * 2.0f;
 2221              		.loc 2 54 41 view .LVU726
 2222 030c 28E7     		b	.L124
 2223              	.L180:
 2224 030e 00BF     		.align	2
 2225              	.L179:
 2226 0310 00000000 		.word	_ZN10Processing6bufferE
 2227 0314 0D661900 		.word	1664525
 2228 0318 5FF36E3C 		.word	1013904223
 2229 031c 00000000 		.word	_ZN10Processing8grains_lE
 2230 0320 00000000 		.word	_ZN10Processing8grains_rE
 2231 0324 00000000 		.word	0
 2232 0328 0000802F 		.word	796917760
 2233              	.LVL159:
 2234              	.L173:
  54:processing.h  ****             return (1.0f - pos) * 2.0f;
 2235              		.loc 2 54 41 view .LVU727
 2236              	.LBE404:
 2237              	.LBE408:
 2238              	.LBE410:
 2239              	.LBE430:
 2240              	.LBE432:
 2241              	.LBB433:
 2242              	.LBB329:
 2243              	.LBB314:
 2244              	.LBB292:
 2245              		.loc 2 100 20 view .LVU728
 2246 032c 07EE90EA 		vmov	s15, lr	@ int
 2247              		.loc 2 100 35 view .LVU729
 2248 0330 5FED035A 		vldr.32	s11, .L179+24
 2249              	.LBE292:
 2250              	.LBE314:
 2251              	.LBB315:
 2252              	.LBB296:
 2253              	.LBB297:
  66:processing.h  ****             while(start_pos < 0.0f) start_pos += (float)buffer_len;
 2254              		.loc 2 66 26 view .LVU730
 2255 0334 03EB4302 		add	r2, r3, r3, lsl #1
 2256 0338 4FF0010E 		mov	lr, #1
 2257              	.LVL160:
  66:processing.h  ****             while(start_pos < 0.0f) start_pos += (float)buffer_len;
 2258              		.loc 2 66 26 view .LVU731
ARM GAS  /tmp/cc8O3cyV.s 			page 60


 2259              	.LBE297:
 2260              	.LBE296:
 2261              	.LBE315:
 2262              	.LBB316:
 2263              	.LBB293:
 2264              		.loc 2 100 20 view .LVU732
 2265 033c B8EE677A 		vcvt.f32.u32	s14, s15
 2266              	.LBE293:
 2267              	.LBE316:
 2268              	.LBB317:
 227:processing.cpp ****             if(!grains_l[i].active) { grains_l[i].Start(start, effective_params[PARAM_PITCH], sz, s
 2269              		.loc 1 227 56 discriminator 1 view .LVU733
 2270 0340 D0F890C0 		ldr	ip, [r0, #144]	@ float
 2271              	.LBE317:
 225:processing.cpp ****         float start = (float)write_pos - (rand_.Process() * spray * 0.5f * sample_rate_);
 2272              		.loc 1 225 67 discriminator 1 view .LVU734
 2273 0344 F6EE007A 		vmov.f32	s15, #5.0e-1
 2274              	.LBB318:
 2275              	.LBB294:
 2276              		.loc 2 100 35 view .LVU735
 2277 0348 27EE257A 		vmul.f32	s14, s14, s11
 2278              	.LBE294:
 2279              	.LBE318:
 225:processing.cpp ****         float start = (float)write_pos - (rand_.Process() * spray * 0.5f * sample_rate_);
 2280              		.loc 1 225 59 discriminator 1 view .LVU736
 2281 034c 27EE027A 		vmul.f32	s14, s14, s4
 225:processing.cpp ****         float start = (float)write_pos - (rand_.Process() * spray * 0.5f * sample_rate_);
 2282              		.loc 1 225 67 discriminator 1 view .LVU737
 2283 0350 27EE277A 		vmul.f32	s14, s14, s15
 225:processing.cpp ****         float start = (float)write_pos - (rand_.Process() * spray * 0.5f * sample_rate_);
 2284              		.loc 1 225 88 discriminator 1 view .LVU738
 2285 0354 07EE905A 		vmov	s15, r5	@ int
 2286 0358 F8EE677A 		vcvt.f32.u32	s15, s15
 2287 035c E6EE477A 		vfms.f32	s15, s12, s14
 2288              	.LBB319:
 227:processing.cpp ****             if(!grains_l[i].active) { grains_l[i].Start(start, effective_params[PARAM_PITCH], sz, s
 2289              		.loc 1 227 39 is_stmt 1 discriminator 1 view .LVU739
 2290              	.LVL161:
 2291              	.LBB306:
 2292              	.LBI296:
  64:processing.h  ****         {
 2293              		.loc 2 64 14 view .LVU740
 2294              	.LBB298:
  66:processing.h  ****             while(start_pos < 0.0f) start_pos += (float)buffer_len;
 2295              		.loc 2 66 13 view .LVU741
  68:processing.h  ****             read_pos     = start_pos;
 2296              		.loc 2 68 32 is_stmt 0 discriminator 1 view .LVU742
 2297 0360 90ED017A 		vldr.32	s14, [r0, #4]	@ int
  66:processing.h  ****             while(start_pos < 0.0f) start_pos += (float)buffer_len;
 2298              		.loc 2 66 26 view .LVU743
 2299 0364 01F832E0 		strb	lr, [r1, r2, lsl #3]
  67:processing.h  ****             while(start_pos >= (float)buffer_len) start_pos -= (float)buffer_len;
 2300              		.loc 2 67 13 is_stmt 1 view .LVU744
  67:processing.h  ****             while(start_pos >= (float)buffer_len) start_pos -= (float)buffer_len;
 2301              		.loc 2 67 29 discriminator 1 view .LVU745
  66:processing.h  ****             while(start_pos < 0.0f) start_pos += (float)buffer_len;
 2302              		.loc 2 66 26 is_stmt 0 view .LVU746
ARM GAS  /tmp/cc8O3cyV.s 			page 61


 2303 0368 03FA0EF2 		lsl	r2, r3, lr
  68:processing.h  ****             read_pos     = start_pos;
 2304              		.loc 2 68 32 discriminator 1 view .LVU747
 2305 036c B8EE477A 		vcvt.f32.u32	s14, s14
  67:processing.h  ****             while(start_pos >= (float)buffer_len) start_pos -= (float)buffer_len;
 2306              		.loc 2 67 29 discriminator 1 view .LVU748
 2307 0370 F5EEC07A 		vcmpe.f32	s15, #0
 2308 0374 F1EE10FA 		vmrs	APSR_nzcv, FPSCR
 2309 0378 0DD5     		bpl	.L169
 2310              	.LVL162:
 2311              	.L105:
  67:processing.h  ****             while(start_pos >= (float)buffer_len) start_pos -= (float)buffer_len;
 2312              		.loc 2 67 37 is_stmt 1 discriminator 2 view .LVU749
  67:processing.h  ****             while(start_pos >= (float)buffer_len) start_pos -= (float)buffer_len;
 2313              		.loc 2 67 47 is_stmt 0 discriminator 2 view .LVU750
 2314 037a 77EE877A 		vadd.f32	s15, s15, s14
 2315              	.LVL163:
  67:processing.h  ****             while(start_pos >= (float)buffer_len) start_pos -= (float)buffer_len;
 2316              		.loc 2 67 29 is_stmt 1 discriminator 1 view .LVU751
 2317 037e F5EEC07A 		vcmpe.f32	s15, #0
 2318 0382 F1EE10FA 		vmrs	APSR_nzcv, FPSCR
 2319 0386 F8D4     		bmi	.L105
  68:processing.h  ****             read_pos     = start_pos;
 2320              		.loc 2 68 29 discriminator 1 view .LVU752
 2321 0388 F4EEC77A 		vcmpe.f32	s15, s14
 2322 038c F1EE10FA 		vmrs	APSR_nzcv, FPSCR
 2323 0390 06DB     		blt	.L177
 2324              	.L108:
  68:processing.h  ****             read_pos     = start_pos;
 2325              		.loc 2 68 51 discriminator 2 view .LVU753
  68:processing.h  ****             read_pos     = start_pos;
 2326              		.loc 2 68 61 is_stmt 0 discriminator 2 view .LVU754
 2327 0392 77EEC77A 		vsub.f32	s15, s15, s14
 2328              	.LVL164:
 2329              	.L169:
  68:processing.h  ****             read_pos     = start_pos;
 2330              		.loc 2 68 29 is_stmt 1 discriminator 1 view .LVU755
 2331 0396 F4EEC77A 		vcmpe.f32	s15, s14
 2332 039a F1EE10FA 		vmrs	APSR_nzcv, FPSCR
 2333 039e F8DA     		bge	.L108
 2334              	.L177:
  69:processing.h  ****             increment    = pitch;
 2335              		.loc 2 69 13 view .LVU756
 2336              	.LBE298:
 2337              	.LBE306:
 2338              	.LBE319:
 2339              	.LBB320:
 2340              	.LBB286:
 2341              		.loc 2 100 20 is_stmt 0 view .LVU757
 2342 03a0 07EE108A 		vmov	s14, r8	@ int
 2343              	.LBE286:
 2344              	.LBE320:
 2345              	.LBB321:
 2346              	.LBB307:
 2347              	.LBB299:
  69:processing.h  ****             increment    = pitch;
 2348              		.loc 2 69 26 view .LVU758
ARM GAS  /tmp/cc8O3cyV.s 			page 62


 2349 03a4 1344     		add	r3, r3, r2
 2350              	.LVL165:
  69:processing.h  ****             increment    = pitch;
 2351              		.loc 2 69 26 view .LVU759
 2352              	.LBE299:
 2353              	.LBE307:
 2354              	.LBE321:
 223:processing.cpp ****         float sz_mod = (1.0f - stereo) + (rand_.Process() * stereo);
 2355              		.loc 1 223 30 view .LVU760
 2356 03a6 F7EE005A 		vmov.f32	s11, #1.0e+0
 2357              	.LBB322:
 2358              	.LBB287:
 2359              		.loc 2 100 35 view .LVU761
 2360 03aa 1FED215A 		vldr.32	s10, .L179+24
 2361              	.LVL166:
 2362              		.loc 2 100 20 view .LVU762
 2363 03ae B8EE477A 		vcvt.f32.u32	s14, s14
 2364              	.LBE287:
 2365              	.LBE322:
 2366              	.LBB323:
 2367              	.LBB308:
 2368              	.LBB300:
  69:processing.h  ****             increment    = pitch;
 2369              		.loc 2 69 26 view .LVU763
 2370 03b2 01EBC301 		add	r1, r1, r3, lsl #3
 2371              	.LBE300:
 2372              	.LBE308:
 2373              	.LBE323:
 224:processing.cpp ****         uint32_t sz = (uint32_t)(effective_params[PARAM_GRAIN_SIZE] * sample_rate_ * sz_mod);
 2374              		.loc 1 224 69 view .LVU764
 2375 03b6 66EE866A 		vmul.f32	s13, s13, s12
 2376              	.LVL167:
 2377              	.LBB324:
 2378              	.LBB309:
 2379              	.LBB301:
  72:processing.h  ****             env_inc      = 1.0f / (float)size_samples;
 2380              		.loc 2 72 26 view .LVU765
 2381 03ba 0023     		movs	r3, #0
  69:processing.h  ****             increment    = pitch;
 2382              		.loc 2 69 26 view .LVU766
 2383 03bc C1ED017A 		vstr.32	s15, [r1, #4]
  70:processing.h  ****             size_samples = size_samps < 4 ? 4 : size_samps;
 2384              		.loc 2 70 13 is_stmt 1 view .LVU767
  71:processing.h  ****             env_pos      = 0.0f;
 2385              		.loc 2 71 13 view .LVU768
 2386              	.LBE301:
 2387              	.LBE309:
 2388              	.LBE324:
 2389              	.LBB325:
 2390              	.LBB288:
 2391              		.loc 2 100 35 is_stmt 0 view .LVU769
 2392 03c0 67EE057A 		vmul.f32	s15, s14, s10
 2393              	.LVL168:
 2394              		.loc 2 100 35 view .LVU770
 2395              	.LBE288:
 2396              	.LBE325:
 2397              	.LBB326:
ARM GAS  /tmp/cc8O3cyV.s 			page 63


 2398              	.LBB310:
 2399              	.LBB302:
  72:processing.h  ****             env_inc      = 1.0f / (float)size_samples;
 2400              		.loc 2 72 26 view .LVU771
 2401 03c4 CB60     		str	r3, [r1, #12]	@ float
 2402              	.LBE302:
 2403              	.LBE310:
 2404              	.LBE326:
 223:processing.cpp ****         float sz_mod = (1.0f - stereo) + (rand_.Process() * stereo);
 2405              		.loc 1 223 30 view .LVU772
 2406 03c6 35EEE27A 		vsub.f32	s14, s11, s5
 2407              	.LBB327:
 2408              	.LBB311:
 2409              	.LBB303:
  70:processing.h  ****             size_samples = size_samps < 4 ? 4 : size_samps;
 2410              		.loc 2 70 26 view .LVU773
 2411 03ca C1F808C0 		str	ip, [r1, #8]	@ float
 2412              	.LBE303:
 2413              	.LBE311:
 2414              	.LBE327:
 223:processing.cpp ****         float sz_mod = (1.0f - stereo) + (rand_.Process() * stereo);
 2415              		.loc 1 223 67 discriminator 1 view .LVU774
 2416 03ce A2EEA77A 		vfma.f32	s14, s5, s15
 224:processing.cpp ****         uint32_t sz = (uint32_t)(effective_params[PARAM_GRAIN_SIZE] * sample_rate_ * sz_mod);
 2417              		.loc 1 224 84 view .LVU775
 2418 03d2 66EE877A 		vmul.f32	s15, s13, s14
 224:processing.cpp ****         uint32_t sz = (uint32_t)(effective_params[PARAM_GRAIN_SIZE] * sample_rate_ * sz_mod);
 2419              		.loc 1 224 18 view .LVU776
 2420 03d6 FCEEE77A 		vcvt.u32.f32	s15, s15
 2421 03da 17EE903A 		vmov	r3, s15	@ int
 2422              	.LBB328:
 2423              	.LBB312:
 2424              	.LBB304:
  71:processing.h  ****             env_pos      = 0.0f;
 2425              		.loc 2 71 43 view .LVU777
 2426 03de 042B     		cmp	r3, #4
 2427 03e0 38BF     		it	cc
 2428 03e2 0423     		movcc	r3, #4
  73:processing.h  ****         }
 2429              		.loc 2 73 35 view .LVU778
 2430 03e4 07EE903A 		vmov	s15, r3	@ int
  71:processing.h  ****             env_pos      = 0.0f;
 2431              		.loc 2 71 26 view .LVU779
 2432 03e8 4B61     		str	r3, [r1, #20]
  72:processing.h  ****             env_inc      = 1.0f / (float)size_samples;
 2433              		.loc 2 72 13 is_stmt 1 view .LVU780
  73:processing.h  ****         }
 2434              		.loc 2 73 13 view .LVU781
  73:processing.h  ****         }
 2435              		.loc 2 73 35 is_stmt 0 view .LVU782
 2436 03ea B8EE677A 		vcvt.f32.u32	s14, s15
  73:processing.h  ****         }
 2437              		.loc 2 73 33 view .LVU783
 2438 03ee C5EE877A 		vdiv.f32	s15, s11, s14
  73:processing.h  ****         }
 2439              		.loc 2 73 26 view .LVU784
 2440 03f2 C1ED047A 		vstr.32	s15, [r1, #16]
ARM GAS  /tmp/cc8O3cyV.s 			page 64


 2441              	.LVL169:
  73:processing.h  ****         }
 2442              		.loc 2 73 26 view .LVU785
 2443              	.LBE304:
 2444              	.LBE312:
 227:processing.cpp ****             if(!grains_l[i].active) { grains_l[i].Start(start, effective_params[PARAM_PITCH], sz, s
 2445              		.loc 1 227 134 is_stmt 1 discriminator 1 view .LVU786
 2446              	.LBB313:
 2447              	.LBB305:
  74:processing.h  **** 
 2448              		.loc 2 74 9 is_stmt 0 view .LVU787
 2449 03f6 4FE6     		b	.L109
 2450              	.LVL170:
 2451              	.L174:
  74:processing.h  **** 
 2452              		.loc 2 74 9 view .LVU788
 2453              	.LBE305:
 2454              	.LBE313:
 2455              	.LBE328:
 2456              	.LBE329:
 2457              	.LBE433:
 2458              	.LBB434:
 2459              	.LBB394:
 2460              	.LBB376:
 2461              	.LBB372:
 2462              		.loc 2 100 20 view .LVU789
 2463 03f8 07EE908A 		vmov	s15, r8	@ int
 2464              		.loc 2 100 35 view .LVU790
 2465 03fc 1FED365A 		vldr.32	s10, .L179+24
 2466              	.LBE372:
 2467              	.LBE376:
 2468              	.LBB377:
 2469              	.LBB336:
 2470              	.LBB337:
  66:processing.h  ****             while(start_pos < 0.0f) start_pos += (float)buffer_len;
 2471              		.loc 2 66 26 view .LVU791
 2472 0400 0CEB4C03 		add	r3, ip, ip, lsl #1
 2473 0404 4FF00108 		mov	r8, #1
 2474              	.LVL171:
  66:processing.h  ****             while(start_pos < 0.0f) start_pos += (float)buffer_len;
 2475              		.loc 2 66 26 view .LVU792
 2476              	.LBE337:
 2477              	.LBE336:
 2478              	.LBE377:
 2479              	.LBB378:
 2480              	.LBB373:
 2481              		.loc 2 100 20 view .LVU793
 2482 0408 F8EE676A 		vcvt.f32.u32	s13, s15
 2483              	.LBE373:
 2484              	.LBE378:
 2485              	.LBB379:
 2486              	.LBB349:
 2487              	.LBB338:
  68:processing.h  ****             read_pos     = start_pos;
 2488              		.loc 2 68 32 discriminator 1 view .LVU794
 2489 040c 07EE101A 		vmov	s14, r1	@ int
 2490              	.LBE338:
ARM GAS  /tmp/cc8O3cyV.s 			page 65


 2491              	.LBE349:
 2492              	.LBE379:
 235:processing.cpp ****         float start = (float)write_pos - (rand_.Process() * spray * 0.5f * sample_rate_);
 2493              		.loc 1 235 67 discriminator 1 view .LVU795
 2494 0410 F6EE007A 		vmov.f32	s15, #5.0e-1
 2495              	.LBB380:
 237:processing.cpp ****             if(!grains_r[i].active) { grains_r[i].Start(start, effective_params[PARAM_PITCH], sz, s
 2496              		.loc 1 237 56 discriminator 1 view .LVU796
 2497 0414 D0F890E0 		ldr	lr, [r0, #144]	@ float
 2498              	.LBB350:
 2499              	.LBB339:
  68:processing.h  ****             read_pos     = start_pos;
 2500              		.loc 2 68 32 discriminator 1 view .LVU797
 2501 0418 B8EE477A 		vcvt.f32.u32	s14, s14
  66:processing.h  ****             while(start_pos < 0.0f) start_pos += (float)buffer_len;
 2502              		.loc 2 66 26 view .LVU798
 2503 041c 02F83380 		strb	r8, [r2, r3, lsl #3]
 2504              	.LBE339:
 2505              	.LBE350:
 2506              	.LBE380:
 2507              	.LBB381:
 2508              	.LBB374:
 2509              		.loc 2 100 35 view .LVU799
 2510 0420 66EE856A 		vmul.f32	s13, s13, s10
 2511              	.LBE374:
 2512              	.LBE381:
 2513              	.LBB382:
 2514              	.LBB351:
 2515              	.LBB340:
  66:processing.h  ****             while(start_pos < 0.0f) start_pos += (float)buffer_len;
 2516              		.loc 2 66 26 view .LVU800
 2517 0424 0CFA08F3 		lsl	r3, ip, r8
 2518              	.LBE340:
 2519              	.LBE351:
 2520              	.LBE382:
 235:processing.cpp ****         float start = (float)write_pos - (rand_.Process() * spray * 0.5f * sample_rate_);
 2521              		.loc 1 235 59 discriminator 1 view .LVU801
 2522 0428 66EE826A 		vmul.f32	s13, s13, s4
 235:processing.cpp ****         float start = (float)write_pos - (rand_.Process() * spray * 0.5f * sample_rate_);
 2523              		.loc 1 235 67 discriminator 1 view .LVU802
 2524 042c 66EEA76A 		vmul.f32	s13, s13, s15
 235:processing.cpp ****         float start = (float)write_pos - (rand_.Process() * spray * 0.5f * sample_rate_);
 2525              		.loc 1 235 88 discriminator 1 view .LVU803
 2526 0430 07EE905A 		vmov	s15, r5	@ int
 2527 0434 F8EE677A 		vcvt.f32.u32	s15, s15
 2528 0438 E5EEE67A 		vfms.f32	s15, s11, s13
 2529              	.LBB383:
 237:processing.cpp ****             if(!grains_r[i].active) { grains_r[i].Start(start, effective_params[PARAM_PITCH], sz, s
 2530              		.loc 1 237 39 is_stmt 1 discriminator 1 view .LVU804
 2531              	.LVL172:
 2532              	.LBB352:
 2533              	.LBI336:
  64:processing.h  ****         {
 2534              		.loc 2 64 14 view .LVU805
 2535              	.LBB341:
  66:processing.h  ****             while(start_pos < 0.0f) start_pos += (float)buffer_len;
 2536              		.loc 2 66 13 view .LVU806
ARM GAS  /tmp/cc8O3cyV.s 			page 66


  67:processing.h  ****             while(start_pos >= (float)buffer_len) start_pos -= (float)buffer_len;
 2537              		.loc 2 67 13 view .LVU807
  67:processing.h  ****             while(start_pos >= (float)buffer_len) start_pos -= (float)buffer_len;
 2538              		.loc 2 67 29 discriminator 1 view .LVU808
 2539 043c F5EEC07A 		vcmpe.f32	s15, #0
 2540 0440 F1EE10FA 		vmrs	APSR_nzcv, FPSCR
 2541 0444 0DD5     		bpl	.L170
 2542              	.LVL173:
 2543              	.L115:
  67:processing.h  ****             while(start_pos >= (float)buffer_len) start_pos -= (float)buffer_len;
 2544              		.loc 2 67 37 discriminator 2 view .LVU809
  67:processing.h  ****             while(start_pos >= (float)buffer_len) start_pos -= (float)buffer_len;
 2545              		.loc 2 67 47 is_stmt 0 discriminator 2 view .LVU810
 2546 0446 77EE877A 		vadd.f32	s15, s15, s14
 2547              	.LVL174:
  67:processing.h  ****             while(start_pos >= (float)buffer_len) start_pos -= (float)buffer_len;
 2548              		.loc 2 67 29 is_stmt 1 discriminator 1 view .LVU811
 2549 044a F5EEC07A 		vcmpe.f32	s15, #0
 2550 044e F1EE10FA 		vmrs	APSR_nzcv, FPSCR
 2551 0452 F8D4     		bmi	.L115
  68:processing.h  ****             read_pos     = start_pos;
 2552              		.loc 2 68 29 discriminator 1 view .LVU812
 2553 0454 F4EEC77A 		vcmpe.f32	s15, s14
 2554 0458 F1EE10FA 		vmrs	APSR_nzcv, FPSCR
 2555 045c 06DB     		blt	.L178
 2556              	.L118:
  68:processing.h  ****             read_pos     = start_pos;
 2557              		.loc 2 68 51 discriminator 2 view .LVU813
  68:processing.h  ****             read_pos     = start_pos;
 2558              		.loc 2 68 61 is_stmt 0 discriminator 2 view .LVU814
 2559 045e 77EEC77A 		vsub.f32	s15, s15, s14
 2560              	.LVL175:
 2561              	.L170:
  68:processing.h  ****             read_pos     = start_pos;
 2562              		.loc 2 68 29 is_stmt 1 discriminator 1 view .LVU815
 2563 0462 F4EEC77A 		vcmpe.f32	s15, s14
 2564 0466 F1EE10FA 		vmrs	APSR_nzcv, FPSCR
 2565 046a F8DA     		bge	.L118
 2566              	.L178:
  69:processing.h  ****             increment    = pitch;
 2567              		.loc 2 69 13 view .LVU816
 2568              	.LBE341:
 2569              	.LBE352:
 2570              	.LBE383:
 2571              	.LBB384:
 2572              	.LBB364:
 2573              		.loc 2 100 20 is_stmt 0 view .LVU817
 2574 046c 07EE109A 		vmov	s14, r9	@ int
 2575              	.LBE364:
 2576              	.LBE384:
 2577              	.LBB385:
 2578              	.LBB353:
 2579              	.LBB342:
  69:processing.h  ****             increment    = pitch;
 2580              		.loc 2 69 26 view .LVU818
 2581 0470 6344     		add	r3, r3, ip
 2582              	.LBE342:
ARM GAS  /tmp/cc8O3cyV.s 			page 67


 2583              	.LBE353:
 2584              	.LBE385:
 233:processing.cpp ****         float sz_mod = (1.0f - stereo) + (rand_.Process() * stereo);
 2585              		.loc 1 233 30 view .LVU819
 2586 0472 F7EE006A 		vmov.f32	s13, #1.0e+0
 2587              	.LBB386:
 2588              	.LBB365:
 2589              		.loc 2 100 35 view .LVU820
 2590 0476 1FED545A 		vldr.32	s10, .L179+24
 2591              		.loc 2 100 20 view .LVU821
 2592 047a B8EE477A 		vcvt.f32.u32	s14, s14
 2593              	.LBE365:
 2594              	.LBE386:
 2595              	.LBB387:
 2596              	.LBB354:
 2597              	.LBB343:
  69:processing.h  ****             increment    = pitch;
 2598              		.loc 2 69 26 view .LVU822
 2599 047e 02EBC302 		add	r2, r2, r3, lsl #3
 2600              	.LBE343:
 2601              	.LBE354:
 2602              	.LBE387:
 234:processing.cpp ****         uint32_t sz = (uint32_t)(effective_params[PARAM_GRAIN_SIZE] * sample_rate_ * sz_mod);
 2603              		.loc 1 234 69 view .LVU823
 2604 0482 26EE256A 		vmul.f32	s12, s12, s11
 2605              	.LVL176:
 2606              	.LBB388:
 2607              	.LBB355:
 2608              	.LBB344:
  72:processing.h  ****             env_inc      = 1.0f / (float)size_samples;
 2609              		.loc 2 72 26 view .LVU824
 2610 0486 0023     		movs	r3, #0
  69:processing.h  ****             increment    = pitch;
 2611              		.loc 2 69 26 view .LVU825
 2612 0488 C2ED017A 		vstr.32	s15, [r2, #4]
  70:processing.h  ****             size_samples = size_samps < 4 ? 4 : size_samps;
 2613              		.loc 2 70 13 is_stmt 1 view .LVU826
  71:processing.h  ****             env_pos      = 0.0f;
 2614              		.loc 2 71 13 view .LVU827
 2615              	.LBE344:
 2616              	.LBE355:
 2617              	.LBE388:
 2618              	.LBB389:
 2619              	.LBB366:
 2620              		.loc 2 100 35 is_stmt 0 view .LVU828
 2621 048c 67EE057A 		vmul.f32	s15, s14, s10
 2622              	.LVL177:
 2623              		.loc 2 100 35 view .LVU829
 2624              	.LBE366:
 2625              	.LBE389:
 2626              	.LBB390:
 2627              	.LBB356:
 2628              	.LBB345:
  72:processing.h  ****             env_inc      = 1.0f / (float)size_samples;
 2629              		.loc 2 72 26 view .LVU830
 2630 0490 D360     		str	r3, [r2, #12]	@ float
 2631              	.LBE345:
ARM GAS  /tmp/cc8O3cyV.s 			page 68


 2632              	.LBE356:
 2633              	.LBE390:
 233:processing.cpp ****         float sz_mod = (1.0f - stereo) + (rand_.Process() * stereo);
 2634              		.loc 1 233 30 view .LVU831
 2635 0492 36EEE27A 		vsub.f32	s14, s13, s5
 2636              	.LBB391:
 2637              	.LBB357:
 2638              	.LBB346:
  70:processing.h  ****             size_samples = size_samps < 4 ? 4 : size_samps;
 2639              		.loc 2 70 26 view .LVU832
 2640 0496 C2F808E0 		str	lr, [r2, #8]	@ float
 2641              	.LBE346:
 2642              	.LBE357:
 2643              	.LBE391:
 233:processing.cpp ****         float sz_mod = (1.0f - stereo) + (rand_.Process() * stereo);
 2644              		.loc 1 233 67 discriminator 1 view .LVU833
 2645 049a A2EEA77A 		vfma.f32	s14, s5, s15
 234:processing.cpp ****         uint32_t sz = (uint32_t)(effective_params[PARAM_GRAIN_SIZE] * sample_rate_ * sz_mod);
 2646              		.loc 1 234 84 view .LVU834
 2647 049e 66EE077A 		vmul.f32	s15, s12, s14
 234:processing.cpp ****         uint32_t sz = (uint32_t)(effective_params[PARAM_GRAIN_SIZE] * sample_rate_ * sz_mod);
 2648              		.loc 1 234 18 view .LVU835
 2649 04a2 FCEEE77A 		vcvt.u32.f32	s15, s15
 2650 04a6 17EE903A 		vmov	r3, s15	@ int
 2651              	.LBB392:
 2652              	.LBB358:
 2653              	.LBB347:
  71:processing.h  ****             env_pos      = 0.0f;
 2654              		.loc 2 71 43 view .LVU836
 2655 04aa 042B     		cmp	r3, #4
 2656 04ac 38BF     		it	cc
 2657 04ae 0423     		movcc	r3, #4
  73:processing.h  ****         }
 2658              		.loc 2 73 35 view .LVU837
 2659 04b0 07EE903A 		vmov	s15, r3	@ int
  71:processing.h  ****             env_pos      = 0.0f;
 2660              		.loc 2 71 26 view .LVU838
 2661 04b4 5361     		str	r3, [r2, #20]
  72:processing.h  ****             env_inc      = 1.0f / (float)size_samples;
 2662              		.loc 2 72 13 is_stmt 1 view .LVU839
  73:processing.h  ****         }
 2663              		.loc 2 73 13 view .LVU840
  73:processing.h  ****         }
 2664              		.loc 2 73 35 is_stmt 0 view .LVU841
 2665 04b6 B8EE677A 		vcvt.f32.u32	s14, s15
  73:processing.h  ****         }
 2666              		.loc 2 73 33 view .LVU842
 2667 04ba C6EE877A 		vdiv.f32	s15, s13, s14
  73:processing.h  ****         }
 2668              		.loc 2 73 26 view .LVU843
 2669 04be C2ED047A 		vstr.32	s15, [r2, #16]
 2670              	.LVL178:
  73:processing.h  ****         }
 2671              		.loc 2 73 26 view .LVU844
 2672              	.LBE347:
 2673              	.LBE358:
 237:processing.cpp ****             if(!grains_r[i].active) { grains_r[i].Start(start, effective_params[PARAM_PITCH], sz, s
ARM GAS  /tmp/cc8O3cyV.s 			page 69


 2674              		.loc 1 237 134 is_stmt 1 discriminator 1 view .LVU845
 2675              	.LBB359:
 2676              	.LBB348:
  74:processing.h  **** 
 2677              		.loc 2 74 9 is_stmt 0 view .LVU846
 2678 04c2 0EE6     		b	.L119
 2679              	.LBE348:
 2680              	.LBE359:
 2681              	.LBE392:
 2682              	.LBE394:
 2683              	.LBE434:
 2684              		.cfi_endproc
 2685              	.LFE4904:
 2687              		.section	.text.startup._GLOBAL__sub_I__ZN10Processing6bufferE,"ax",%progbits
 2688              		.align	1
 2689              		.p2align 2,,3
 2690              		.syntax unified
 2691              		.thumb
 2692              		.thumb_func
 2694              	_GLOBAL__sub_I__ZN10Processing6bufferE:
 2695              	.LFB5508:
 2696              		.loc 1 252 1 is_stmt 1 view -0
 2697              		.cfi_startproc
 2698              		@ args = 0, pretend = 0, frame = 0
 2699              		@ frame_needed = 0, uses_anonymous_args = 0
 2700              		@ link register save eliminated.
 2701              	.LBB441:
 2702              	.LBI441:
 2703              		.loc 1 252 1 view .LVU848
 2704              	.LBB442:
  49:processing.cpp **** Processing::Grain Processing::grains_l[MAX_GRAINS];
 2705              		.loc 1 49 50 discriminator 2 view .LVU849
 2706 0000 094B     		ldr	r3, .L186
 2707 0002 03F1C001 		add	r1, r3, #192
 2708              	.L182:
 2709              	.LVL179:
 2710              	.LBB443:
 2711              	.LBI443:
  50:processing.h  ****     {
 2712              		.loc 2 50 12 view .LVU850
 2713              	.LBE443:
  49:processing.cpp **** Processing::Grain Processing::grains_l[MAX_GRAINS];
 2714              		.loc 1 49 50 is_stmt 0 discriminator 2 view .LVU851
 2715 0006 1833     		adds	r3, r3, #24
 2716              	.LVL180:
 2717              	.LBB446:
 2718              	.LBB444:
  50:processing.h  ****     {
 2719              		.loc 2 50 12 view .LVU852
 2720 0008 0022     		movs	r2, #0
 2721              	.LBE444:
 2722              	.LBE446:
  49:processing.cpp **** Processing::Grain Processing::grains_l[MAX_GRAINS];
 2723              		.loc 1 49 50 discriminator 2 view .LVU853
 2724 000a 8B42     		cmp	r3, r1
 2725              	.LBB447:
 2726              	.LBB445:
ARM GAS  /tmp/cc8O3cyV.s 			page 70


  50:processing.h  ****     {
 2727              		.loc 2 50 12 view .LVU854
 2728 000c 03F8302C 		strb	r2, [r3, #-48]
 2729              	.LVL181:
  50:processing.h  ****     {
 2730              		.loc 2 50 12 view .LVU855
 2731              	.LBE445:
 2732              	.LBE447:
  49:processing.cpp **** Processing::Grain Processing::grains_l[MAX_GRAINS];
 2733              		.loc 1 49 50 is_stmt 1 discriminator 2 view .LVU856
 2734 0010 F9D1     		bne	.L182
 2735 0012 064B     		ldr	r3, .L186+4
 2736 0014 03F1C001 		add	r1, r3, #192
 2737              	.L183:
 2738              	.LVL182:
 2739              	.LBB448:
 2740              	.LBI448:
  50:processing.h  ****     {
 2741              		.loc 2 50 12 view .LVU857
 2742              	.LBE448:
  50:processing.cpp **** Processing::Grain Processing::grains_r[MAX_GRAINS];
 2743              		.loc 1 50 50 is_stmt 0 discriminator 2 view .LVU858
 2744 0018 1833     		adds	r3, r3, #24
 2745              	.LVL183:
 2746              	.LBB451:
 2747              	.LBB449:
  50:processing.h  ****     {
 2748              		.loc 2 50 12 view .LVU859
 2749 001a 0022     		movs	r2, #0
 2750              	.LBE449:
 2751              	.LBE451:
  50:processing.cpp **** Processing::Grain Processing::grains_r[MAX_GRAINS];
 2752              		.loc 1 50 50 discriminator 2 view .LVU860
 2753 001c 9942     		cmp	r1, r3
 2754              	.LBB452:
 2755              	.LBB450:
  50:processing.h  ****     {
 2756              		.loc 2 50 12 view .LVU861
 2757 001e 03F8302C 		strb	r2, [r3, #-48]
 2758              	.LVL184:
  50:processing.h  ****     {
 2759              		.loc 2 50 12 view .LVU862
 2760              	.LBE450:
 2761              	.LBE452:
  50:processing.cpp **** Processing::Grain Processing::grains_r[MAX_GRAINS];
 2762              		.loc 1 50 50 is_stmt 1 discriminator 2 view .LVU863
 2763 0022 F9D1     		bne	.L183
 2764              	.LBE442:
 2765              	.LBE441:
 2766              		.loc 1 252 1 is_stmt 0 view .LVU864
 2767 0024 7047     		bx	lr
 2768              	.L187:
 2769 0026 00BF     		.align	2
 2770              	.L186:
 2771 0028 18000000 		.word	_ZN10Processing8grains_lE+24
 2772 002c 18000000 		.word	_ZN10Processing8grains_rE+24
 2773              		.cfi_endproc
ARM GAS  /tmp/cc8O3cyV.s 			page 71


 2774              	.LFE5508:
 2776              		.section	.init_array,"aw",%init_array
 2777              		.align	2
 2778 0000 00000000 		.word	_GLOBAL__sub_I__ZN10Processing6bufferE(target1)
 2779              		.global	_ZN10Processing8grains_rE
 2780              		.section	.bss._ZN10Processing8grains_rE,"aw",%nobits
 2781              		.align	3
 2784              	_ZN10Processing8grains_rE:
 2785 0000 00000000 		.space	192
 2785      00000000 
 2785      00000000 
 2785      00000000 
 2785      00000000 
 2786              		.global	_ZN10Processing8grains_lE
 2787              		.section	.bss._ZN10Processing8grains_lE,"aw",%nobits
 2788              		.align	3
 2791              	_ZN10Processing8grains_lE:
 2792 0000 00000000 		.space	192
 2792      00000000 
 2792      00000000 
 2792      00000000 
 2792      00000000 
 2793              		.section	.rodata.str1.4,"aMS",%progbits,1
 2794              		.align	2
 2795              	.LC3:
 2796 0000 47524149 		.ascii	"GRAIN\000"
 2796      4E00
 2797              		.section	.rodata._ZL6kPages,"a"
 2798              		.align	2
 2801              	_ZL6kPages:
 2802 0000 00000000 		.word	.LC0
 2803 0004 00000000 		.word	_ZL9kItemsMix
 2804 0008 04000000 		.word	4
 2805 000c 00000000 		.word	.LC3
 2806 0010 00000000 		.word	_ZL11kItemsGrain
 2807 0014 05000000 		.word	5
 2808 0018 04000000 		.word	.LC1
 2809 001c 00000000 		.word	_ZL10kItemsTime
 2810 0020 02000000 		.word	2
 2811              		.section	.rodata.str1.4
 2812 0006 0000     		.align	2
 2813              	.LC4:
 2814 0008 4D617020 		.ascii	"Map Amt\000"
 2814      416D7400 
 2815              		.section	.rodata._ZL14kItemsAdvanced,"a"
 2816              		.align	2
 2819              	_ZL14kItemsAdvanced:
 2820 0000 08000000 		.word	.LC4
 2821 0004 00       		.byte	0
 2822 0005 000000   		.space	3
 2823 0008 0B000000 		.word	11
 2824              		.section	.rodata.str1.4
 2825              		.align	2
 2826              	.LC5:
 2827 0010 42504D00 		.ascii	"BPM\000"
 2828              		.align	2
 2829              	.LC6:
ARM GAS  /tmp/cc8O3cyV.s 			page 72


 2830 0014 44697600 		.ascii	"Div\000"
 2831              		.section	.rodata._ZL10kItemsTime,"a"
 2832              		.align	2
 2835              	_ZL10kItemsTime:
 2836 0000 10000000 		.word	.LC5
 2837 0004 00       		.byte	0
 2838 0005 000000   		.space	3
 2839 0008 04000000 		.word	4
 2840 000c 14000000 		.word	.LC6
 2841 0010 00       		.byte	0
 2842 0011 000000   		.space	3
 2843 0014 05000000 		.word	5
 2844              		.section	.rodata.str1.4
 2845              		.align	2
 2846              	.LC7:
 2847 0018 50697463 		.ascii	"Pitch\000"
 2847      6800
 2848 001e 0000     		.align	2
 2849              	.LC8:
 2850 0020 53697A65 		.ascii	"Size\000"
 2850      00
 2851 0025 000000   		.align	2
 2852              	.LC9:
 2853 0028 44656E73 		.ascii	"Density\000"
 2853      69747900 
 2854              		.align	2
 2855              	.LC10:
 2856 0030 53707261 		.ascii	"Spray\000"
 2856      7900
 2857 0036 0000     		.align	2
 2858              	.LC11:
 2859 0038 53746572 		.ascii	"Stereo\000"
 2859      656F00
 2860              		.section	.rodata._ZL11kItemsGrain,"a"
 2861              		.align	2
 2864              	_ZL11kItemsGrain:
 2865 0000 18000000 		.word	.LC7
 2866 0004 00       		.byte	0
 2867 0005 000000   		.space	3
 2868 0008 06000000 		.word	6
 2869 000c 20000000 		.word	.LC8
 2870 0010 00       		.byte	0
 2871 0011 000000   		.space	3
 2872 0014 07000000 		.word	7
 2873 0018 28000000 		.word	.LC9
 2874 001c 00       		.byte	0
 2875 001d 000000   		.space	3
 2876 0020 08000000 		.word	8
 2877 0024 30000000 		.word	.LC10
 2878 0028 00       		.byte	0
 2879 0029 000000   		.space	3
 2880 002c 09000000 		.word	9
 2881 0030 38000000 		.word	.LC11
 2882 0034 00       		.byte	0
 2883 0035 000000   		.space	3
 2884 0038 0A000000 		.word	10
 2885              		.section	.rodata.str1.4
ARM GAS  /tmp/cc8O3cyV.s 			page 73


 2886 003f 00       		.align	2
 2887              	.LC12:
 2888 0040 50726520 		.ascii	"Pre Gain\000"
 2888      4761696E 
 2888      00
 2889 0049 000000   		.align	2
 2890              	.LC13:
 2891 004c 506F7374 		.ascii	"Post Gain\000"
 2891      20476169 
 2891      6E00
 2892 0056 0000     		.align	2
 2893              	.LC14:
 2894 0058 4D697800 		.ascii	"Mix\000"
 2895              		.align	2
 2896              	.LC15:
 2897 005c 46626B00 		.ascii	"Fbk\000"
 2898              		.section	.rodata._ZL9kItemsMix,"a"
 2899              		.align	2
 2902              	_ZL9kItemsMix:
 2903 0000 40000000 		.word	.LC12
 2904 0004 00       		.byte	0
 2905 0005 000000   		.space	3
 2906 0008 00000000 		.word	0
 2907 000c 4C000000 		.word	.LC13
 2908 0010 00       		.byte	0
 2909 0011 000000   		.space	3
 2910 0014 03000000 		.word	3
 2911 0018 58000000 		.word	.LC14
 2912 001c 00       		.byte	0
 2913 001d 000000   		.space	3
 2914 0020 02000000 		.word	2
 2915 0024 5C000000 		.word	.LC15
 2916 0028 00       		.byte	0
 2917 0029 000000   		.space	3
 2918 002c 01000000 		.word	1
 2919              		.global	_ZN10Processing6bufferE
 2920              		.section	.sdram_bss,"aw"
 2921              		.align	2
 2924              	_ZN10Processing6bufferE:
 2925 0000 00000000 		.space	384000
 2925      00000000 
 2925      00000000 
 2925      00000000 
 2925      00000000 
 2926              		.text
 2927              	.Letext0:
 2928              		.file 6 "/usr/arm-none-eabi/include/machine/_default_types.h"
 2929              		.file 7 "/usr/arm-none-eabi/include/sys/_stdint.h"
 2930              		.file 8 "/usr/arm-none-eabi/include/stdint.h"
 2931              		.file 9 "/usr/lib/gcc/arm-none-eabi/14.2.0/include/stddef.h"
 2932              		.file 10 "/usr/arm-none-eabi/include/c++/14.2.0/cmath"
 2933              		.file 11 "/usr/arm-none-eabi/include/c++/14.2.0/bits/std_abs.h"
 2934              		.file 12 "/usr/arm-none-eabi/include/c++/14.2.0/cstdint"
 2935              		.file 13 "/usr/arm-none-eabi/include/c++/14.2.0/cstdlib"
 2936              		.file 14 "/usr/arm-none-eabi/include/c++/14.2.0/cwchar"
 2937              		.file 15 "/usr/arm-none-eabi/include/c++/14.2.0/type_traits"
 2938              		.file 16 "/usr/arm-none-eabi/include/c++/14.2.0/clocale"
ARM GAS  /tmp/cc8O3cyV.s 			page 74


 2939              		.file 17 "/usr/arm-none-eabi/include/c++/14.2.0/debug/debug.h"
 2940              		.file 18 "/usr/arm-none-eabi/include/c++/14.2.0/cstdio"
 2941              		.file 19 "/usr/arm-none-eabi/include/c++/14.2.0/bits/stl_pair.h"
 2942              		.file 20 "/usr/arm-none-eabi/include/c++/14.2.0/bits/charconv.h"
 2943              		.file 21 "/usr/arm-none-eabi/include/c++/14.2.0/cstring"
 2944              		.file 22 "/usr/arm-none-eabi/include/c++/14.2.0/cstdarg"
 2945              		.file 23 "/usr/arm-none-eabi/include/c++/14.2.0/arm-none-eabi/thumb/v7e-m+dp/hard/bits/c++config.h
 2946              		.file 24 "/usr/arm-none-eabi/include/c++/14.2.0/bits/predefined_ops.h"
 2947              		.file 25 "/usr/arm-none-eabi/include/sys/_types.h"
 2948              		.file 26 "/usr/arm-none-eabi/include/sys/reent.h"
 2949              		.file 27 "/usr/arm-none-eabi/include/sys/lock.h"
 2950              		.file 28 "/usr/arm-none-eabi/include/math.h"
 2951              		.file 29 "/usr/arm-none-eabi/include/stdlib.h"
 2952              		.file 30 "/usr/arm-none-eabi/include/c++/14.2.0/math.h"
 2953              		.file 31 "DaisySP/Source/Control/adenv.h"
 2954              		.file 32 "/usr/lib/gcc/arm-none-eabi/14.2.0/include/stdarg.h"
 2955              		.file 33 "/usr/arm-none-eabi/include/wchar.h"
 2956              		.file 34 "/usr/arm-none-eabi/include/locale.h"
 2957              		.file 35 "/usr/arm-none-eabi/include/stdio.h"
 2958              		.file 36 "/usr/arm-none-eabi/include/c++/14.2.0/stdlib.h"
 2959              		.file 37 "/usr/arm-none-eabi/include/string.h"
 2960              		.file 38 "libDaisy/src/daisy_core.h"
 2961              		.file 39 "libDaisy/src/sys/system.h"
 2962              		.file 40 "libDaisy/src/per/qspi.h"
 2963              		.file 41 "libDaisy/src/per/dac.h"
 2964              		.file 42 "libDaisy/src/per/gpio.h"
 2965              		.file 43 "libDaisy/src/per/sai.h"
 2966              		.file 44 "libDaisy/src/hid/audio.h"
 2967              		.file 45 "libDaisy/src/per/adc.h"
 2968              		.file 46 "libDaisy/src/hid/usb.h"
 2969              		.file 47 "libDaisy/src/util/wav_format.h"
 2970              		.file 48 "libDaisy/src/dev/sr_595.h"
 2971              		.file 49 "libDaisy/src/dev/codec_ak4556.h"
 2972              		.file 50 "libDaisy/src/dev/max11300.h"
 2973              		.file 51 "libDaisy/src/daisy_seed.h"
 2974              		.file 52 "libDaisy/src/dev/sdram.h"
 2975              		.file 53 "hw.h"
 2976              		.file 54 "<built-in>"
ARM GAS  /tmp/cc8O3cyV.s 			page 75

